Microsoft (R) COFF/PE Dumper Version 14.41.34120.0
Copyright (C) Microsoft Corporation.  All rights reserved.


Dump of file Disasm.exe

File Type: EXECUTABLE IMAGE

  0000000140011000: CC                 int         3
  0000000140011001: CC                 int         3
  0000000140011002: CC                 int         3
  0000000140011003: CC                 int         3
  0000000140011004: CC                 int         3
@ILT+0(_set_fmode):
  0000000140011005: E9 E0 4D 00 00     jmp         _set_fmode
@ILT+5(__vcrt_LoadLibraryExW):
  000000014001100A: E9 7B 4D 00 00     jmp         __vcrt_LoadLibraryExW
@ILT+10(?set_commode@__scrt_file_policy@@SAXXZ):
  000000014001100F: E9 DC 15 00 00     jmp         ?set_commode@__scrt_file_policy@@SAXXZ
@ILT+15(strcat_s):
  0000000140011014: E9 0D 4E 00 00     jmp         strcat_s
@ILT+20(__scrt_exe_initialize_mta):
  0000000140011019: E9 02 35 00 00     jmp         __scrt_exe_initialize_mta
@ILT+25(IsDebuggerPresent):
  000000014001101E: E9 51 4E 00 00     jmp         IsDebuggerPresent
@ILT+30(GetCurrentThreadId):
  0000000140011023: E9 46 4E 00 00     jmp         GetCurrentThreadId
@ILT+35(__local_stdio_printf_options):
  0000000140011028: E9 43 08 00 00     jmp         __local_stdio_printf_options
@ILT+40(terminate):
  000000014001102D: E9 24 4E 00 00     jmp         terminate
@ILT+45(__C_specific_handler):
  0000000140011032: E9 29 4D 00 00     jmp         __C_specific_handler
@ILT+50(_guard_check_icall_nop):
  0000000140011037: E9 84 36 00 00     jmp         _guard_check_icall_nop
@ILT+55(_CRT_RTC_INITW):
  000000014001103C: E9 DF 0E 00 00     jmp         _CRT_RTC_INITW
@ILT+60(_RTC_GetErrDesc):
  0000000140011041: E9 0A 20 00 00     jmp         _RTC_GetErrDesc
@ILT+65(GetProcAddress):
  0000000140011046: E9 B9 4E 00 00     jmp         GetProcAddress
@ILT+70(__scrt_dllmain_before_initialize_c):
  000000014001104B: E9 70 28 00 00     jmp         __scrt_dllmain_before_initialize_c
@ILT+75(__local_stdio_scanf_options):
  0000000140011050: E9 5B 08 00 00     jmp         __local_stdio_scanf_options
@ILT+80(exit):
  0000000140011055: E9 84 4D 00 00     jmp         exit
@ILT+85(_initialize_narrow_environment):
  000000014001105A: E9 67 4D 00 00     jmp         _initialize_narrow_environment
@ILT+90(__acrt_thread_detach):
  000000014001105F: E9 CC 4E 00 00     jmp         __acrt_thread_detach
@ILT+95(__report_gsfailure):
  0000000140011064: E9 D7 20 00 00     jmp         __report_gsfailure
@ILT+100(ReadNoFence64):
  0000000140011069: E9 62 36 00 00     jmp         ReadNoFence64
@ILT+105(_wmakepath_s):
  000000014001106E: E9 E9 4D 00 00     jmp         _wmakepath_s
@ILT+110(_get_startup_thread_locale_mode):
  0000000140011073: E9 C8 2F 00 00     jmp         _get_startup_thread_locale_mode
@ILT+115(_CrtDbgReportW):
  0000000140011078: E9 2B 4D 00 00     jmp         _CrtDbgReportW
@ILT+120(_get_startup_new_mode):
  000000014001107D: E9 AE 2F 00 00     jmp         _get_startup_new_mode
@ILT+125(__acrt_initialize):
  0000000140011082: E9 89 4E 00 00     jmp         __acrt_initialize
@ILT+130(__scrt_stub_for_is_c_termination_complete):
  0000000140011087: E9 D4 4E 00 00     jmp         __scrt_stub_for_is_c_termination_complete
@ILT+135(?_RTC_GetErrorFuncW@@YAP6AHHPEB_WH00ZZPEBX@Z):
  000000014001108C: E9 AF 1F 00 00     jmp         ?_RTC_GetErrorFuncW@@YAP6AHHPEB_WH00ZZPEBX@Z
@ILT+140(_get_initial_narrow_environment):
  0000000140011091: E9 36 4D 00 00     jmp         _get_initial_narrow_environment
@ILT+145(__current_exception):
  0000000140011096: E9 D7 4C 00 00     jmp         __current_exception
@ILT+150(scanf):
  000000014001109B: E9 30 0B 00 00     jmp         scanf
@ILT+155(_RTC_UninitUse):
  00000001400110A0: E9 DB 1D 00 00     jmp         _RTC_UninitUse
@ILT+160(_guard_xfg_dispatch_icall_nop):
  00000001400110A5: E9 B6 62 00 00     jmp         _guard_xfg_dispatch_icall_nop
@ILT+165(_onexit):
  00000001400110AA: E9 71 2C 00 00     jmp         _onexit
@ILT+170(_matherr):
  00000001400110AF: E9 3C 2F 00 00     jmp         _matherr
@ILT+175(?__scrt_initialize_type_info@@YAXXZ):
  00000001400110B4: E9 97 2F 00 00     jmp         ?__scrt_initialize_type_info@@YAXXZ
@ILT+180(__acrt_uninitialize):
  00000001400110B9: E9 82 4E 00 00     jmp         __acrt_uninitialize
@ILT+185(__castguard_slow_path_check_nop):
  00000001400110BE: E9 3D 39 00 00     jmp         __castguard_slow_path_check_nop
@ILT+190(?set_app_type@__scrt_main_policy@@SAXXZ):
  00000001400110C3: E9 08 15 00 00     jmp         ?set_app_type@__scrt_main_policy@@SAXXZ
@ILT+195(__castguard_slow_path_check_user_handled):
  00000001400110C8: E9 B3 39 00 00     jmp         __castguard_slow_path_check_user_handled
@ILT+200(_vfscanf_l):
  00000001400110CD: E9 AE 08 00 00     jmp         _vfscanf_l
@ILT+205(_guard_dispatch_icall_nop):
  00000001400110D2: E9 69 62 00 00     jmp         _guard_dispatch_icall_nop
@ILT+210(GetLastError):
  00000001400110D7: E9 04 4E 00 00     jmp         GetLastError
@ILT+215(__GSHandlerCheckCommon):
  00000001400110DC: E9 6F 0F 00 00     jmp         __GSHandlerCheckCommon
@ILT+220(__acrt_thread_attach):
  00000001400110E1: E9 3A 4E 00 00     jmp         __acrt_thread_attach
@ILT+225(_RTC_NumErrors):
  00000001400110E6: E9 85 1F 00 00     jmp         _RTC_NumErrors
@ILT+230(__scrt_initialize_onexit_tables):
  00000001400110EB: E9 A0 29 00 00     jmp         __scrt_initialize_onexit_tables
@ILT+235(__report_securityfailure):
  00000001400110F0: E9 7B 21 00 00     jmp         __report_securityfailure
@ILT+240(__acrt_uninitialize_critical):
  00000001400110F5: E9 56 4E 00 00     jmp         __acrt_uninitialize_critical
@ILT+245(__scrt_unhandled_exception_filter):
  00000001400110FA: E9 31 34 00 00     jmp         __scrt_unhandled_exception_filter
@ILT+250(__castguard_check_failure_user_handled):
  00000001400110FF: E9 FC 36 00 00     jmp         __castguard_check_failure_user_handled
@ILT+255(__vcrt_GetModuleHandleW):
  0000000140011104: E9 7B 4C 00 00     jmp         __vcrt_GetModuleHandleW
@ILT+260(_RTC_SetErrorFuncW):
  0000000140011109: E9 92 1F 00 00     jmp         _RTC_SetErrorFuncW
@ILT+265(InitializeSListHead):
  000000014001110E: E9 BB 4D 00 00     jmp         InitializeSListHead
@ILT+270(__scrt_exe_initialize_mta):
  0000000140011113: E9 08 34 00 00     jmp         __scrt_exe_initialize_mta
@ILT+275(_guard_icall_checks_enforced):
  0000000140011118: E9 53 3A 00 00     jmp         _guard_icall_checks_enforced
@ILT+280(_initialize_denormal_control):
  000000014001111D: E9 8E 2F 00 00     jmp         _initialize_denormal_control
@ILT+285(_RTC_SetErrorFunc):
  0000000140011122: E9 59 1F 00 00     jmp         _RTC_SetErrorFunc
@ILT+290(strcpy_s):
  0000000140011127: E9 F4 4C 00 00     jmp         strcpy_s
@ILT+295(_crt_atexit):
  000000014001112C: E9 19 4D 00 00     jmp         _crt_atexit
@ILT+300(?__empty_global_delete@@YAXPEAX_K@Z):
  0000000140011131: E9 EA 06 00 00     jmp         ?__empty_global_delete@@YAXPEAX_K@Z
@ILT+305(_configthreadlocale):
  0000000140011136: E9 D3 4C 00 00     jmp         _configthreadlocale
@ILT+310(IsProcessorFeaturePresent):
  000000014001113B: E9 76 4D 00 00     jmp         IsProcessorFeaturePresent
@ILT+315(__castguard_check_failure_debugbreak):
  0000000140011140: E9 DB 35 00 00     jmp         __castguard_check_failure_debugbreak
@ILT+320(?initialize_environment@__scrt_narrow_environment_policy@@SAHXZ):
  0000000140011145: E9 16 14 00 00     jmp         ?initialize_environment@__scrt_narrow_environment_policy@@SAHXZ
@ILT+325(GetCurrentProcess):
  000000014001114A: E9 5B 4D 00 00     jmp         GetCurrentProcess
@ILT+330(__scrt_uninitialize_crt):
  000000014001114F: E9 7C 2B 00 00     jmp         __scrt_uninitialize_crt
@ILT+335(__scrt_is_ucrt_dll_in_use):
  0000000140011154: E9 D7 4B 00 00     jmp         __scrt_is_ucrt_dll_in_use
@ILT+340(_RTC_SetErrorType):
  0000000140011159: E9 62 1F 00 00     jmp         _RTC_SetErrorType
@ILT+345(__scrt_is_nonwritable_in_current_image):
  000000014001115E: E9 7D 2A 00 00     jmp         __scrt_is_nonwritable_in_current_image
@ILT+350(atexit):
  0000000140011163: E9 B8 2C 00 00     jmp         atexit
@ILT+355(__GSHandlerCheck):
  0000000140011168: E9 93 0E 00 00     jmp         __GSHandlerCheck
@ILT+360(__acrt_thread_detach):
  000000014001116D: E9 BE 4D 00 00     jmp         __acrt_thread_detach
@ILT+365(_vfprintf_l):
  0000000140011172: E9 79 07 00 00     jmp         _vfprintf_l
@ILT+370(ReadPointerNoFence):
  0000000140011177: E9 84 35 00 00     jmp         ReadPointerNoFence
@ILT+375(RtlVirtualUnwind):
  000000014001117C: E9 17 4D 00 00     jmp         RtlVirtualUnwind
@ILT+380(__acrt_uninitialize):
  0000000140011181: E9 BA 4D 00 00     jmp         __acrt_uninitialize
@ILT+385(wcscpy_s):
  0000000140011186: E9 DD 4C 00 00     jmp         wcscpy_s
@ILT+390(__acrt_uninitialize_critical):
  000000014001118B: E9 C0 4D 00 00     jmp         __acrt_uninitialize_critical
@ILT+395(_c_exit):
  0000000140011190: E9 6D 4C 00 00     jmp         _c_exit
@ILT+400(_get_startup_commit_mode):
  0000000140011195: E9 76 2E 00 00     jmp         _get_startup_commit_mode
@ILT+405(GetCurrentProcessId):
  000000014001119A: E9 23 4D 00 00     jmp         GetCurrentProcessId
@ILT+410(__acrt_thread_attach):
  000000014001119F: E9 7C 4D 00 00     jmp         __acrt_thread_attach
@ILT+415(printf):
  00000001400111A4: E9 37 09 00 00     jmp         printf
@ILT+420(_initterm_e):
  00000001400111A9: E9 2A 4C 00 00     jmp         _initterm_e
@ILT+425(FreeLibrary):
  00000001400111AE: E9 4B 4D 00 00     jmp         FreeLibrary
@ILT+430(at_quick_exit):
  00000001400111B3: E9 08 2C 00 00     jmp         at_quick_exit
@ILT+435(_should_initialize_environment):
  00000001400111B8: E9 D3 2E 00 00     jmp         _should_initialize_environment
@ILT+440(__security_check_cookie):
  00000001400111BD: E9 DE 0F 00 00     jmp         __security_check_cookie
@ILT+445(memcpy):
  00000001400111C2: E9 9C 4D 00 00     jmp         memcpy
@ILT+450(_crt_at_quick_exit):
  00000001400111C7: E9 84 4C 00 00     jmp         _crt_at_quick_exit
@ILT+455(?_RTC_Failure@@YAXPEAXH@Z):
  00000001400111CC: E9 EF 16 00 00     jmp         ?_RTC_Failure@@YAXPEAXH@Z
@ILT+460(HeapFree):
  00000001400111D1: E9 16 4D 00 00     jmp         HeapFree
@ILT+465(HeapAlloc):
  00000001400111D6: E9 0B 4D 00 00     jmp         HeapAlloc
@ILT+470(__castguard_slow_path_check_fastfail):
  00000001400111DB: E9 C0 37 00 00     jmp         __castguard_slow_path_check_fastfail
@ILT+475(_seh_filter_dll):
  00000001400111E0: E9 4D 4C 00 00     jmp         _seh_filter_dll
@ILT+480(__stdio_common_vfscanf):
  00000001400111E5: E9 B2 4B 00 00     jmp         __stdio_common_vfscanf
@ILT+485(_set_app_type):
  00000001400111EA: E9 C5 4B 00 00     jmp         _set_app_type
@ILT+490(_get_startup_file_mode):
  00000001400111EF: E9 2C 2E 00 00     jmp         _get_startup_file_mode
@ILT+495(__scrt_stub_for_is_c_termination_complete):
  00000001400111F4: E9 67 4D 00 00     jmp         __scrt_stub_for_is_c_termination_complete
@ILT+500(_get_startup_argv_mode):
  00000001400111F9: E9 02 2E 00 00     jmp         _get_startup_argv_mode
@ILT+505(__scrt_initialize_winrt):
  00000001400111FE: E9 1D 32 00 00     jmp         __scrt_initialize_winrt
@ILT+510(__raise_securityfailure):
  0000000140011203: E9 E8 1E 00 00     jmp         __raise_securityfailure
@ILT+515(_RTC_Initialize):
  0000000140011208: E9 F3 33 00 00     jmp         _RTC_Initialize
@ILT+520(__stdio_common_vfprintf):
  000000014001120D: E9 84 4B 00 00     jmp         __stdio_common_vfprintf
@ILT+525(_exit):
  0000000140011212: E9 CD 4B 00 00     jmp         _exit
@ILT+530(sprintf_s):
  0000000140011217: E9 E4 1D 00 00     jmp         sprintf_s
@ILT+535(QueryPerformanceCounter):
  000000014001121C: E9 9B 4C 00 00     jmp         QueryPerformanceCounter
@ILT+540(SetUnhandledExceptionFilter):
  0000000140011221: E9 7E 4C 00 00     jmp         SetUnhandledExceptionFilter
@ILT+545(_CRT_RTC_INIT):
  0000000140011226: E9 E5 0C 00 00     jmp         _CRT_RTC_INIT
@ILT+550(?configure_argv@__scrt_narrow_argv_policy@@SAHXZ):
  000000014001122B: E9 10 13 00 00     jmp         ?configure_argv@__scrt_narrow_argv_policy@@SAHXZ
@ILT+555(__setusermatherr):
  0000000140011230: E9 85 4B 00 00     jmp         __setusermatherr
@ILT+560(_RTC_Terminate):
  0000000140011235: E9 26 34 00 00     jmp         _RTC_Terminate
@ILT+565(_CrtDbgReport):
  000000014001123A: E9 63 4B 00 00     jmp         _CrtDbgReport
@ILT+570(__scrt_is_user_matherr_present):
  000000014001123F: E9 DC 2E 00 00     jmp         __scrt_is_user_matherr_present
@ILT+575(__scrt_set_unhandled_exception_filter):
  0000000140011244: E9 B7 32 00 00     jmp         __scrt_set_unhandled_exception_filter
@ILT+580(__current_exception_context):
  0000000140011249: E9 2A 4B 00 00     jmp         __current_exception_context
@ILT+585(_register_onexit_function):
  000000014001124E: E9 EB 4B 00 00     jmp         _register_onexit_function
@ILT+590(__acrt_thread_detach):
  0000000140011253: E9 D8 4C 00 00     jmp         __acrt_thread_detach
@ILT+595(_execute_onexit_table):
  0000000140011258: E9 E7 4B 00 00     jmp         _execute_onexit_table
@ILT+600(__acrt_uninitialize):
  000000014001125D: E9 DE 4C 00 00     jmp         __acrt_uninitialize
@ILT+605(GetProcessHeap):
  0000000140011262: E9 8B 4C 00 00     jmp         GetProcessHeap
@ILT+610(__acrt_thread_attach):
  0000000140011267: E9 B4 4C 00 00     jmp         __acrt_thread_attach
@ILT+615(_RTC_CheckStackVars2):
  000000014001126C: E9 4F 0B 00 00     jmp         _RTC_CheckStackVars2
@ILT+620(?_RTC_StackFailure@@YAXPEAXPEBD@Z):
  0000000140011271: E9 BA 16 00 00     jmp         ?_RTC_StackFailure@@YAXPEAXPEBD@Z
@ILT+625(GetSystemTimeAsFileTime):
  0000000140011276: E9 4D 4C 00 00     jmp         GetSystemTimeAsFileTime
@ILT+630(MultiByteToWideChar):
  000000014001127B: E9 00 4C 00 00     jmp         MultiByteToWideChar
@ILT+635(main):
  0000000140011280: E9 8B 07 00 00     jmp         main
@ILT+640(mainCRTStartup):
  0000000140011285: E9 B6 13 00 00     jmp         mainCRTStartup
@ILT+645(__scrt_is_managed_app):
  000000014001128A: E9 A1 31 00 00     jmp         __scrt_is_managed_app
@ILT+650(__castguard_set_user_handler):
  000000014001128F: E9 8C 36 00 00     jmp         __castguard_set_user_handler
@ILT+655(__acrt_uninitialize_critical):
  0000000140011294: E9 B7 4C 00 00     jmp         __acrt_uninitialize_critical
@ILT+660(__security_init_cookie):
  0000000140011299: E9 B2 2C 00 00     jmp         __security_init_cookie
@ILT+665(__castguard_slow_path_check_os_handled):
  000000014001129E: E9 7D 37 00 00     jmp         __castguard_slow_path_check_os_handled
@ILT+670(__acrt_initialize):
  00000001400112A3: E9 68 4C 00 00     jmp         __acrt_initialize
@ILT+675(WideCharToMultiByte):
  00000001400112A8: E9 D9 4B 00 00     jmp         WideCharToMultiByte
@ILT+680(__scrt_get_dyn_tls_init_callback):
  00000001400112AD: E9 9E 2E 00 00     jmp         __scrt_get_dyn_tls_init_callback
@ILT+685(?__scrt_uninitialize_type_info@@YAXXZ):
  00000001400112B2: E9 B9 2D 00 00     jmp         ?__scrt_uninitialize_type_info@@YAXXZ
@ILT+690(__report_rangecheckfailure):
  00000001400112B7: E9 94 1F 00 00     jmp         __report_rangecheckfailure
@ILT+695(_guard_rf_checks_enforced):
  00000001400112BC: E9 FF 38 00 00     jmp         _guard_rf_checks_enforced
@ILT+700(?_RTC_GetSrcLine@@YAHPEAEPEA_WKPEAH1K@Z):
  00000001400112C1: E9 7A 3F 00 00     jmp         ?_RTC_GetSrcLine@@YAHPEAEPEA_WKPEAH1K@Z
@ILT+705(__scrt_dllmain_uninitialize_critical):
  00000001400112C6: E9 45 27 00 00     jmp         __scrt_dllmain_uninitialize_critical
@ILT+710(__p__commode):
  00000001400112CB: E9 4A 4B 00 00     jmp         __p__commode
@ILT+715(RtlCaptureContext):
  00000001400112D0: E9 B7 4B 00 00     jmp         RtlCaptureContext
@ILT+720(__scrt_dllmain_crt_thread_attach):
  00000001400112D5: E9 16 26 00 00     jmp         __scrt_dllmain_crt_thread_attach
@ILT+725(__p___argc):
  00000001400112DA: E9 11 4B 00 00     jmp         __p___argc
@ILT+730(__scrt_get_dyn_tls_dtor_callback):
  00000001400112DF: E9 7C 2E 00 00     jmp         __scrt_get_dyn_tls_dtor_callback
@ILT+735(__acrt_initialize):
  00000001400112E4: E9 27 4C 00 00     jmp         __acrt_initialize
@ILT+740(_set_new_mode):
  00000001400112E9: E9 26 4B 00 00     jmp         _set_new_mode
@ILT+745(?__empty_global_delete@@YAXPEAX@Z):
  00000001400112EE: E9 ED 04 00 00     jmp         ?__empty_global_delete@@YAXPEAX@Z
@ILT+750(__scrt_initialize_default_local_stdio_options):
  00000001400112F3: E9 C8 2D 00 00     jmp         __scrt_initialize_default_local_stdio_options
@ILT+755(__crt_debugger_hook):
  00000001400112F8: E9 73 2E 00 00     jmp         __crt_debugger_hook
@ILT+760(RtlLookupFunctionEntry):
  00000001400112FD: E9 90 4B 00 00     jmp         RtlLookupFunctionEntry
@ILT+765(__castguard_slow_path_check_debugbreak):
  0000000140011302: E9 49 36 00 00     jmp         __castguard_slow_path_check_debugbreak
@ILT+770(__castguard_check_failure_nop):
  0000000140011307: E9 74 34 00 00     jmp         __castguard_check_failure_nop
@ILT+775(__scrt_dllmain_after_initialize_c):
  000000014001130C: E9 6F 25 00 00     jmp         __scrt_dllmain_after_initialize_c
@ILT+780(__p___argv):
  0000000140011311: E9 E0 4A 00 00     jmp         __p___argv
@ILT+785(__scrt_release_startup_lock):
  0000000140011316: E9 75 29 00 00     jmp         __scrt_release_startup_lock
@ILT+790(__std_type_info_destroy_list):
  000000014001131B: E9 4C 4A 00 00     jmp         __std_type_info_destroy_list
@ILT+795(_RTC_CheckStackVars):
  0000000140011320: E9 EB 09 00 00     jmp         _RTC_CheckStackVars
@ILT+800(__isa_available_init):
  0000000140011325: E9 D6 43 00 00     jmp         __isa_available_init
@ILT+805(__scrt_fastfail):
  000000014001132A: E9 61 2E 00 00     jmp         __scrt_fastfail
@ILT+810(RaiseException):
  000000014001132F: E9 46 4B 00 00     jmp         RaiseException
@ILT+815(_initterm):
  0000000140011334: E9 99 4A 00 00     jmp         _initterm
@ILT+820(NtCurrentTeb):
  0000000140011339: E9 B2 24 00 00     jmp         NtCurrentTeb
@ILT+825(__scrt_acquire_startup_lock):
  000000014001133E: E9 BD 24 00 00     jmp         __scrt_acquire_startup_lock
@ILT+830(?set_fmode@__scrt_file_policy@@SAXXZ):
  0000000140011343: E9 D8 12 00 00     jmp         ?set_fmode@__scrt_file_policy@@SAXXZ
@ILT+835(_RTC_InitBase):
  0000000140011348: E9 E3 0B 00 00     jmp         _RTC_InitBase
@ILT+840(__castguard_check_failure_os_handled):
  000000014001134D: E9 3E 34 00 00     jmp         __castguard_check_failure_os_handled
@ILT+845(_seh_filter_exe):
  0000000140011352: E9 57 4A 00 00     jmp         _seh_filter_exe
@ILT+850(UnhandledExceptionFilter):
  0000000140011357: E9 42 4B 00 00     jmp         UnhandledExceptionFilter
@ILT+855(__stdio_common_vsprintf_s):
  000000014001135C: E9 CB 4A 00 00     jmp         __stdio_common_vsprintf_s
@ILT+860(GetModuleHandleW):
  0000000140011361: E9 74 4B 00 00     jmp         GetModuleHandleW
@ILT+865(_vsprintf_s_l):
  0000000140011366: E9 15 1C 00 00     jmp         _vsprintf_s_l
@ILT+870(_register_thread_local_exe_atexit_callback):
  000000014001136B: E9 98 4A 00 00     jmp         _register_thread_local_exe_atexit_callback
@ILT+875(VirtualQuery):
  0000000140011370: E9 83 4B 00 00     jmp         VirtualQuery
@ILT+880(_cexit):
  0000000140011375: E9 82 4A 00 00     jmp         _cexit
@ILT+885(?_RTC_GetErrorFunc@@YAP6AHHPEBDH00ZZPEBX@Z):
  000000014001137A: E9 B1 1C 00 00     jmp         ?_RTC_GetErrorFunc@@YAP6AHHPEBDH00ZZPEBX@Z
@ILT+890(?_RTC_AllocaFailure@@YAXPEAXPEAU_RTC_ALLOCA_NODE@@H@Z):
  000000014001137F: E9 8C 13 00 00     jmp         ?_RTC_AllocaFailure@@YAXPEAXPEAU_RTC_ALLOCA_NODE@@H@Z
@ILT+895(__CheckForDebuggerJustMyCode):
  0000000140011384: E9 27 0C 00 00     jmp         __CheckForDebuggerJustMyCode
@ILT+900(__C_specific_handler_noexcept):
  0000000140011389: E9 D8 49 00 00     jmp         __C_specific_handler_noexcept
@ILT+905(_initialize_invalid_parameter_handler):
  000000014001138E: E9 0D 2D 00 00     jmp         _initialize_invalid_parameter_handler
@ILT+910(__scrt_initialize_mta):
  0000000140011393: E9 68 30 00 00     jmp         __scrt_initialize_mta
@ILT+915(_wsplitpath_s):
  0000000140011398: E9 C5 4A 00 00     jmp         _wsplitpath_s
@ILT+920(__scrt_dllmain_exception_filter):
  000000014001139D: E9 AE 25 00 00     jmp         __scrt_dllmain_exception_filter
@ILT+925(__JustMyCode_Default):
  00000001400113A2: E9 B9 04 00 00     jmp         __JustMyCode_Default
@ILT+930(_configure_narrow_argv):
  00000001400113A7: E9 14 4A 00 00     jmp         _configure_narrow_argv
@ILT+935(__scrt_initialize_crt):
  00000001400113AC: E9 7F 26 00 00     jmp         __scrt_initialize_crt
@ILT+940(__vcrt_GetModuleFileNameW):
  00000001400113B1: E9 C8 49 00 00     jmp         __vcrt_GetModuleFileNameW
@ILT+945(__castguard_check_failure_fastfail):
  00000001400113B6: E9 95 33 00 00     jmp         __castguard_check_failure_fastfail
@ILT+950(__scrt_get_show_window_mode):
  00000001400113BB: E9 D0 2F 00 00     jmp         __scrt_get_show_window_mode
@ILT+955(__scrt_dllmain_crt_thread_detach):
  00000001400113C0: E9 6B 25 00 00     jmp         __scrt_dllmain_crt_thread_detach
@ILT+960(_initialize_onexit_table):
  00000001400113C5: E9 6E 4A 00 00     jmp         _initialize_onexit_table
@ILT+965(__acrt_iob_func):
  00000001400113CA: E9 C1 49 00 00     jmp         __acrt_iob_func
@ILT+970(__report_securityfailureEx):
  00000001400113CF: E9 6C 1F 00 00     jmp         __report_securityfailureEx
@ILT+975(__scrt_dllmain_uninitialize_c):
  00000001400113D4: E9 F7 25 00 00     jmp         __scrt_dllmain_uninitialize_c
@ILT+980(GetStartupInfoW):
  00000001400113D9: E9 F6 4A 00 00     jmp         GetStartupInfoW
@ILT+985(_RTC_AllocaHelper):
  00000001400113DE: E9 DD 08 00 00     jmp         _RTC_AllocaHelper
@ILT+990(TerminateProcess):
  00000001400113E3: E9 C8 4A 00 00     jmp         TerminateProcess
@ILT+995(_RTC_Shutdown):
  00000001400113E8: E9 93 0B 00 00     jmp         _RTC_Shutdown
  00000001400113ED: CC CC CC CC CC CC CC CC CC CC CC CC CC CC CC CC  ŒŒŒŒŒŒŒŒŒŒŒŒŒŒŒŒ
  00000001400113FD: CC CC CC CC CC CC CC CC CC CC CC CC CC CC CC CC  ŒŒŒŒŒŒŒŒŒŒŒŒŒŒŒŒ
  000000014001140D: CC CC CC CC CC CC CC CC CC CC CC CC CC CC CC CC  ŒŒŒŒŒŒŒŒŒŒŒŒŒŒŒŒ
  000000014001141D: CC CC CC CC CC CC CC CC CC CC CC CC CC CC CC CC  ŒŒŒŒŒŒŒŒŒŒŒŒŒŒŒŒ
  000000014001142D: CC CC CC CC CC CC CC CC CC CC CC CC CC CC CC CC  ŒŒŒŒŒŒŒŒŒŒŒŒŒŒŒŒ
  000000014001143D: CC CC CC CC CC CC CC CC CC CC CC CC CC CC CC CC  ŒŒŒŒŒŒŒŒŒŒŒŒŒŒŒŒ
  000000014001144D: CC CC CC CC CC CC CC CC CC CC CC CC CC CC CC CC  ŒŒŒŒŒŒŒŒŒŒŒŒŒŒŒŒ
  000000014001145D: CC CC CC CC CC CC CC CC CC CC CC CC CC CC CC CC  ŒŒŒŒŒŒŒŒŒŒŒŒŒŒŒŒ
  000000014001146D: CC CC CC CC CC CC CC CC CC CC CC CC CC CC CC CC  ŒŒŒŒŒŒŒŒŒŒŒŒŒŒŒŒ
  000000014001147D: CC CC CC CC CC CC CC CC CC CC CC CC CC CC CC CC  ŒŒŒŒŒŒŒŒŒŒŒŒŒŒŒŒ
  000000014001148D: CC CC CC CC CC CC CC CC CC CC CC CC CC CC CC CC  ŒŒŒŒŒŒŒŒŒŒŒŒŒŒŒŒ
  000000014001149D: CC CC CC CC CC CC CC CC CC CC CC CC CC CC CC CC  ŒŒŒŒŒŒŒŒŒŒŒŒŒŒŒŒ
  00000001400114AD: CC CC CC CC CC CC CC CC CC CC CC CC CC CC CC CC  ŒŒŒŒŒŒŒŒŒŒŒŒŒŒŒŒ
  00000001400114BD: CC CC CC CC CC CC CC CC CC CC CC CC CC CC CC CC  ŒŒŒŒŒŒŒŒŒŒŒŒŒŒŒŒ
  00000001400114CD: CC CC CC CC CC CC CC CC CC CC CC CC CC CC CC CC  ŒŒŒŒŒŒŒŒŒŒŒŒŒŒŒŒ
  00000001400114DD: CC CC CC CC CC CC CC CC CC CC CC CC CC CC CC CC  ŒŒŒŒŒŒŒŒŒŒŒŒŒŒŒŒ
  00000001400114ED: CC CC CC CC CC CC CC CC CC CC CC CC CC CC CC CC  ŒŒŒŒŒŒŒŒŒŒŒŒŒŒŒŒ
  00000001400114FD: CC CC CC CC CC CC CC CC CC CC CC CC CC CC CC CC  ŒŒŒŒŒŒŒŒŒŒŒŒŒŒŒŒ
  000000014001150D: CC CC CC CC CC CC CC CC CC CC CC CC CC CC CC CC  ŒŒŒŒŒŒŒŒŒŒŒŒŒŒŒŒ
  000000014001151D: CC CC CC CC CC CC CC CC CC CC CC CC CC CC CC CC  ŒŒŒŒŒŒŒŒŒŒŒŒŒŒŒŒ
  000000014001152D: CC CC CC CC CC CC CC CC CC CC CC CC CC CC CC CC  ŒŒŒŒŒŒŒŒŒŒŒŒŒŒŒŒ
  000000014001153D: CC CC CC CC CC CC CC CC CC CC CC CC CC CC CC CC  ŒŒŒŒŒŒŒŒŒŒŒŒŒŒŒŒ
  000000014001154D: CC CC CC CC CC CC CC CC CC CC CC CC CC CC CC CC  ŒŒŒŒŒŒŒŒŒŒŒŒŒŒŒŒ
  000000014001155D: CC CC CC CC CC CC CC CC CC CC CC CC CC CC CC CC  ŒŒŒŒŒŒŒŒŒŒŒŒŒŒŒŒ
  000000014001156D: CC CC CC CC CC CC CC CC CC CC CC CC CC CC CC CC  ŒŒŒŒŒŒŒŒŒŒŒŒŒŒŒŒ
  000000014001157D: CC CC CC CC CC CC CC CC CC CC CC CC CC CC CC CC  ŒŒŒŒŒŒŒŒŒŒŒŒŒŒŒŒ
  000000014001158D: CC CC CC CC CC CC CC CC CC CC CC CC CC CC CC CC  ŒŒŒŒŒŒŒŒŒŒŒŒŒŒŒŒ
  000000014001159D: CC CC CC CC CC CC CC CC CC CC CC CC CC CC CC CC  ŒŒŒŒŒŒŒŒŒŒŒŒŒŒŒŒ
  00000001400115AD: CC CC CC CC CC CC CC CC CC CC CC CC CC CC CC CC  ŒŒŒŒŒŒŒŒŒŒŒŒŒŒŒŒ
  00000001400115BD: CC CC CC CC CC CC CC CC CC CC CC CC CC CC CC CC  ŒŒŒŒŒŒŒŒŒŒŒŒŒŒŒŒ
  00000001400115CD: CC CC CC CC CC CC CC CC CC CC CC CC CC CC CC CC  ŒŒŒŒŒŒŒŒŒŒŒŒŒŒŒŒ
  00000001400115DD: CC CC CC CC CC CC CC CC CC CC CC CC CC CC CC CC  ŒŒŒŒŒŒŒŒŒŒŒŒŒŒŒŒ
  00000001400115ED: CC CC CC CC CC CC CC CC CC CC CC CC CC CC CC CC  ŒŒŒŒŒŒŒŒŒŒŒŒŒŒŒŒ
  00000001400115FD: CC CC CC CC CC CC CC CC CC CC CC CC CC CC CC CC  ŒŒŒŒŒŒŒŒŒŒŒŒŒŒŒŒ
  000000014001160D: CC CC CC CC CC CC CC CC CC CC CC CC CC CC CC CC  ŒŒŒŒŒŒŒŒŒŒŒŒŒŒŒŒ
  000000014001161D: CC CC CC CC CC CC CC CC CC CC CC CC CC CC CC CC  ŒŒŒŒŒŒŒŒŒŒŒŒŒŒŒŒ
  000000014001162D: CC CC CC CC CC CC CC CC CC CC CC CC CC CC CC CC  ŒŒŒŒŒŒŒŒŒŒŒŒŒŒŒŒ
  000000014001163D: CC CC CC CC CC CC CC CC CC CC CC CC CC CC CC CC  ŒŒŒŒŒŒŒŒŒŒŒŒŒŒŒŒ
  000000014001164D: CC CC CC CC CC CC CC CC CC CC CC CC CC CC CC CC  ŒŒŒŒŒŒŒŒŒŒŒŒŒŒŒŒ
  000000014001165D: CC CC CC CC CC CC CC CC CC CC CC CC CC CC CC CC  ŒŒŒŒŒŒŒŒŒŒŒŒŒŒŒŒ
  000000014001166D: CC CC CC CC CC CC CC CC CC CC CC CC CC CC CC CC  ŒŒŒŒŒŒŒŒŒŒŒŒŒŒŒŒ
  000000014001167D: CC CC CC CC CC CC CC CC CC CC CC CC CC CC CC CC  ŒŒŒŒŒŒŒŒŒŒŒŒŒŒŒŒ
  000000014001168D: CC CC CC CC CC CC CC CC CC CC CC CC CC CC CC CC  ŒŒŒŒŒŒŒŒŒŒŒŒŒŒŒŒ
  000000014001169D: CC CC CC CC CC CC CC CC CC CC CC CC CC CC CC CC  ŒŒŒŒŒŒŒŒŒŒŒŒŒŒŒŒ
  00000001400116AD: CC CC CC CC CC CC CC CC CC CC CC CC CC CC CC CC  ŒŒŒŒŒŒŒŒŒŒŒŒŒŒŒŒ
  00000001400116BD: CC CC CC CC CC CC CC CC CC CC CC CC CC CC CC CC  ŒŒŒŒŒŒŒŒŒŒŒŒŒŒŒŒ
  00000001400116CD: CC CC CC CC CC CC CC CC CC CC CC CC CC CC CC CC  ŒŒŒŒŒŒŒŒŒŒŒŒŒŒŒŒ
  00000001400116DD: CC CC CC CC CC CC CC CC CC CC CC CC CC CC CC CC  ŒŒŒŒŒŒŒŒŒŒŒŒŒŒŒŒ
  00000001400116ED: CC CC CC CC CC CC CC CC CC CC CC CC CC CC CC CC  ŒŒŒŒŒŒŒŒŒŒŒŒŒŒŒŒ
  00000001400116FD: CC CC CC CC CC CC CC CC CC CC CC CC CC CC CC CC  ŒŒŒŒŒŒŒŒŒŒŒŒŒŒŒŒ
  000000014001170D: CC CC CC CC CC CC CC CC CC CC CC CC CC CC CC CC  ŒŒŒŒŒŒŒŒŒŒŒŒŒŒŒŒ
  000000014001171D: CC CC CC CC CC CC CC CC CC CC CC CC CC CC CC CC  ŒŒŒŒŒŒŒŒŒŒŒŒŒŒŒŒ
  000000014001172D: CC CC CC CC CC CC CC CC CC CC CC CC CC CC CC CC  ŒŒŒŒŒŒŒŒŒŒŒŒŒŒŒŒ
  000000014001173D: CC CC CC CC CC CC CC CC CC CC CC CC CC CC CC CC  ŒŒŒŒŒŒŒŒŒŒŒŒŒŒŒŒ
  000000014001174D: CC CC CC CC CC CC CC CC CC CC CC CC CC CC CC CC  ŒŒŒŒŒŒŒŒŒŒŒŒŒŒŒŒ
  000000014001175D: CC CC CC CC CC CC CC CC CC CC CC CC CC CC CC CC  ŒŒŒŒŒŒŒŒŒŒŒŒŒŒŒŒ
  000000014001176D: CC CC CC CC CC CC CC CC CC CC CC CC CC CC CC CC  ŒŒŒŒŒŒŒŒŒŒŒŒŒŒŒŒ
  000000014001177D: CC CC CC CC CC CC CC CC CC CC CC CC CC CC CC CC  ŒŒŒŒŒŒŒŒŒŒŒŒŒŒŒŒ
  000000014001178D: CC CC CC CC CC CC CC CC CC CC CC CC CC CC CC CC  ŒŒŒŒŒŒŒŒŒŒŒŒŒŒŒŒ
  000000014001179D: CC CC CC CC CC CC CC CC CC CC CC CC CC CC CC CC  ŒŒŒŒŒŒŒŒŒŒŒŒŒŒŒŒ
  00000001400117AD: CC CC CC CC CC CC CC CC CC CC CC CC CC CC CC CC  ŒŒŒŒŒŒŒŒŒŒŒŒŒŒŒŒ
  00000001400117BD: CC CC CC CC CC CC CC CC CC CC CC CC CC CC CC CC  ŒŒŒŒŒŒŒŒŒŒŒŒŒŒŒŒ
  00000001400117CD: CC CC CC CC CC CC CC CC CC CC CC CC CC CC CC CC  ŒŒŒŒŒŒŒŒŒŒŒŒŒŒŒŒ
  00000001400117DD: CC CC CC                                         ŒŒŒ
?__empty_global_delete@@YAXPEAX@Z:
  00000001400117E0: 48 89 4C 24 08     mov         qword ptr [rsp+8],rcx
  00000001400117E5: 55                 push        rbp
  00000001400117E6: 57                 push        rdi
  00000001400117E7: 48 81 EC E8 00 00  sub         rsp,0E8h
                    00
  00000001400117EE: 48 8D 6C 24 20     lea         rbp,[rsp+20h]
  00000001400117F3: 48 8D 0D 7B 08 01  lea         rcx,[140022075h]
                    00
  00000001400117FA: E8 85 FB FF FF     call        @ILT+895(__CheckForDebuggerJustMyCode)
  00000001400117FF: 90                 nop
  0000000140011800: 48 8D A5 C8 00 00  lea         rsp,[rbp+0C8h]
                    00
  0000000140011807: 5F                 pop         rdi
  0000000140011808: 5D                 pop         rbp
  0000000140011809: C3                 ret
  000000014001180A: CC CC CC CC CC CC CC CC CC CC CC CC CC CC CC CC  ŒŒŒŒŒŒŒŒŒŒŒŒŒŒŒŒ
  000000014001181A: CC CC CC CC CC CC                                ŒŒŒŒŒŒ
?__empty_global_delete@@YAXPEAX_K@Z:
  0000000140011820: 48 89 54 24 10     mov         qword ptr [rsp+10h],rdx
  0000000140011825: 48 89 4C 24 08     mov         qword ptr [rsp+8],rcx
  000000014001182A: 55                 push        rbp
  000000014001182B: 57                 push        rdi
  000000014001182C: 48 81 EC E8 00 00  sub         rsp,0E8h
                    00
  0000000140011833: 48 8D 6C 24 20     lea         rbp,[rsp+20h]
  0000000140011838: 48 8D 0D 36 08 01  lea         rcx,[140022075h]
                    00
  000000014001183F: E8 40 FB FF FF     call        @ILT+895(__CheckForDebuggerJustMyCode)
  0000000140011844: 90                 nop
  0000000140011845: 48 8D A5 C8 00 00  lea         rsp,[rbp+0C8h]
                    00
  000000014001184C: 5F                 pop         rdi
  000000014001184D: 5D                 pop         rbp
  000000014001184E: C3                 ret
  000000014001184F: CC CC CC CC CC CC CC CC CC CC CC CC CC CC CC CC  ŒŒŒŒŒŒŒŒŒŒŒŒŒŒŒŒ
  000000014001185F: CC                                               Œ
__JustMyCode_Default:
  0000000140011860: C2 00 00           ret         0
  0000000140011863: CC CC CC CC CC CC CC CC CC CC CC CC CC           ŒŒŒŒŒŒŒŒŒŒŒŒŒ
__local_stdio_printf_options:
  0000000140011870: 40 55              push        rbp
  0000000140011872: 57                 push        rdi
  0000000140011873: 48 81 EC E8 00 00  sub         rsp,0E8h
                    00
  000000014001187A: 48 8D 6C 24 20     lea         rbp,[rsp+20h]
  000000014001187F: 48 8D 0D 97 07 01  lea         rcx,[14002201Dh]
                    00
  0000000140011886: E8 F9 FA FF FF     call        @ILT+895(__CheckForDebuggerJustMyCode)
  000000014001188B: 90                 nop
  000000014001188C: 48 8D 05 25 B9 00  lea         rax,[?_OptionsStorage@?1??__local_stdio_printf_options@@9@4_KA]
                    00
  0000000140011893: 48 8D A5 C8 00 00  lea         rsp,[rbp+0C8h]
                    00
  000000014001189A: 5F                 pop         rdi
  000000014001189B: 5D                 pop         rbp
  000000014001189C: C3                 ret
  000000014001189D: CC CC CC CC CC CC CC CC CC CC CC CC CC CC CC CC  ŒŒŒŒŒŒŒŒŒŒŒŒŒŒŒŒ
  00000001400118AD: CC CC CC                                         ŒŒŒ
__local_stdio_scanf_options:
  00000001400118B0: 40 55              push        rbp
  00000001400118B2: 57                 push        rdi
  00000001400118B3: 48 81 EC E8 00 00  sub         rsp,0E8h
                    00
  00000001400118BA: 48 8D 6C 24 20     lea         rbp,[rsp+20h]
  00000001400118BF: 48 8D 0D 57 07 01  lea         rcx,[14002201Dh]
                    00
  00000001400118C6: E8 B9 FA FF FF     call        @ILT+895(__CheckForDebuggerJustMyCode)
  00000001400118CB: 90                 nop
  00000001400118CC: 48 8D 05 F5 B8 00  lea         rax,[?_OptionsStorage@?1??__local_stdio_scanf_options@@9@4_KA]
                    00
  00000001400118D3: 48 8D A5 C8 00 00  lea         rsp,[rbp+0C8h]
                    00
  00000001400118DA: 5F                 pop         rdi
  00000001400118DB: 5D                 pop         rbp
  00000001400118DC: C3                 ret
  00000001400118DD: CC CC CC CC CC CC CC CC CC CC CC CC CC CC CC CC  ŒŒŒŒŒŒŒŒŒŒŒŒŒŒŒŒ
  00000001400118ED: CC CC CC                                         ŒŒŒ
_vfprintf_l:
  00000001400118F0: 4C 89 4C 24 20     mov         qword ptr [rsp+20h],r9
  00000001400118F5: 4C 89 44 24 18     mov         qword ptr [rsp+18h],r8
  00000001400118FA: 48 89 54 24 10     mov         qword ptr [rsp+10h],rdx
  00000001400118FF: 48 89 4C 24 08     mov         qword ptr [rsp+8],rcx
  0000000140011904: 55                 push        rbp
  0000000140011905: 57                 push        rdi
  0000000140011906: 48 81 EC F8 00 00  sub         rsp,0F8h
                    00
  000000014001190D: 48 8D 6C 24 30     lea         rbp,[rsp+30h]
  0000000140011912: 48 8D 0D 06 07 01  lea         rcx,[14002201Fh]
                    00
  0000000140011919: E8 66 FA FF FF     call        @ILT+895(__CheckForDebuggerJustMyCode)
  000000014001191E: 90                 nop
  000000014001191F: E8 04 F7 FF FF     call        @ILT+35(__local_stdio_printf_options)
  0000000140011924: 48 8B 8D F8 00 00  mov         rcx,qword ptr [rbp+0F8h]
                    00
  000000014001192B: 48 89 4C 24 20     mov         qword ptr [rsp+20h],rcx
  0000000140011930: 4C 8B 8D F0 00 00  mov         r9,qword ptr [rbp+0F0h]
                    00
  0000000140011937: 4C 8B 85 E8 00 00  mov         r8,qword ptr [rbp+0E8h]
                    00
  000000014001193E: 48 8B 95 E0 00 00  mov         rdx,qword ptr [rbp+0E0h]
                    00
  0000000140011945: 48 8B 08           mov         rcx,qword ptr [rax]
  0000000140011948: FF 15 BA F9 00 00  call        qword ptr [__imp___stdio_common_vfprintf]
  000000014001194E: 48 8D A5 C8 00 00  lea         rsp,[rbp+0C8h]
                    00
  0000000140011955: 5F                 pop         rdi
  0000000140011956: 5D                 pop         rbp
  0000000140011957: C3                 ret
  0000000140011958: CC CC CC CC CC CC CC CC CC CC CC CC CC CC CC CC  ŒŒŒŒŒŒŒŒŒŒŒŒŒŒŒŒ
  0000000140011968: CC CC CC CC CC CC CC CC CC CC CC CC CC CC CC CC  ŒŒŒŒŒŒŒŒŒŒŒŒŒŒŒŒ
  0000000140011978: CC CC CC CC CC CC CC CC                          ŒŒŒŒŒŒŒŒ
_vfscanf_l:
  0000000140011980: 4C 89 4C 24 20     mov         qword ptr [rsp+20h],r9
  0000000140011985: 4C 89 44 24 18     mov         qword ptr [rsp+18h],r8
  000000014001198A: 48 89 54 24 10     mov         qword ptr [rsp+10h],rdx
  000000014001198F: 48 89 4C 24 08     mov         qword ptr [rsp+8],rcx
  0000000140011994: 55                 push        rbp
  0000000140011995: 57                 push        rdi
  0000000140011996: 48 81 EC F8 00 00  sub         rsp,0F8h
                    00
  000000014001199D: 48 8D 6C 24 30     lea         rbp,[rsp+30h]
  00000001400119A2: 48 8D 0D 76 06 01  lea         rcx,[14002201Fh]
                    00
  00000001400119A9: E8 D6 F9 FF FF     call        @ILT+895(__CheckForDebuggerJustMyCode)
  00000001400119AE: 90                 nop
  00000001400119AF: E8 9C F6 FF FF     call        @ILT+75(__local_stdio_scanf_options)
  00000001400119B4: 48 8B 8D F8 00 00  mov         rcx,qword ptr [rbp+0F8h]
                    00
  00000001400119BB: 48 89 4C 24 20     mov         qword ptr [rsp+20h],rcx
  00000001400119C0: 4C 8B 8D F0 00 00  mov         r9,qword ptr [rbp+0F0h]
                    00
  00000001400119C7: 4C 8B 85 E8 00 00  mov         r8,qword ptr [rbp+0E8h]
                    00
  00000001400119CE: 48 8B 95 E0 00 00  mov         rdx,qword ptr [rbp+0E0h]
                    00
  00000001400119D5: 48 8B 08           mov         rcx,qword ptr [rax]
  00000001400119D8: FF 15 22 F9 00 00  call        qword ptr [__imp___stdio_common_vfscanf]
  00000001400119DE: 48 8D A5 C8 00 00  lea         rsp,[rbp+0C8h]
                    00
  00000001400119E5: 5F                 pop         rdi
  00000001400119E6: 5D                 pop         rbp
  00000001400119E7: C3                 ret
  00000001400119E8: CC CC CC CC CC CC CC CC CC CC CC CC CC CC CC CC  ŒŒŒŒŒŒŒŒŒŒŒŒŒŒŒŒ
  00000001400119F8: CC CC CC CC CC CC CC CC CC CC CC CC CC CC CC CC  ŒŒŒŒŒŒŒŒŒŒŒŒŒŒŒŒ
  0000000140011A08: CC CC CC CC CC CC CC CC                          ŒŒŒŒŒŒŒŒ
main:
  0000000140011A10: 40 55              push        rbp
  0000000140011A12: 57                 push        rdi
  0000000140011A13: 48 81 EC 48 01 00  sub         rsp,148h
                    00
  0000000140011A1A: 48 8D 6C 24 20     lea         rbp,[rsp+20h]
  0000000140011A1F: 48 8D 7C 24 20     lea         rdi,[rsp+20h]
  0000000140011A24: B9 1A 00 00 00     mov         ecx,1Ah
  0000000140011A29: B8 CC CC CC CC     mov         eax,0CCCCCCCCh
  0000000140011A2E: F3 AB              rep stos    dword ptr [rdi]
  0000000140011A30: 48 8B 05 C9 B5 00  mov         rax,qword ptr [__security_cookie]
                    00
  0000000140011A37: 48 33 C5           xor         rax,rbp
  0000000140011A3A: 48 89 85 18 01 00  mov         qword ptr [rbp+118h],rax
                    00
  0000000140011A41: 48 8D 0D 2D 06 01  lea         rcx,[140022075h]
                    00
  0000000140011A48: E8 37 F9 FF FF     call        @ILT+895(__CheckForDebuggerJustMyCode)
  0000000140011A4D: 90                 nop
  0000000140011A4E: C7 45 04 00 00 00  mov         dword ptr [rbp+4],0
                    00
  0000000140011A55: 48 8D 05 B4 91 00  lea         rax,[??_C@_0M@FDPFOKB@Hello?5Roman@]
                    00
  0000000140011A5C: 48 89 45 28        mov         qword ptr [rbp+28h],rax
  0000000140011A60: 48 8D 55 04        lea         rdx,[rbp+4]
  0000000140011A64: 48 8D 0D B9 92 00  lea         rcx,[??_C@_02DPKJAMEF@?$CFd@]
                    00
  0000000140011A6B: E8 2B F6 FF FF     call        @ILT+150(scanf)
  0000000140011A70: 90                 nop
  0000000140011A71: 8B 45 04           mov         eax,dword ptr [rbp+4]
  0000000140011A74: 0F AF 45 04        imul        eax,dword ptr [rbp+4]
  0000000140011A78: 89 45 44           mov         dword ptr [rbp+44h],eax
  0000000140011A7B: 8B 55 44           mov         edx,dword ptr [rbp+44h]
  0000000140011A7E: 48 8D 0D 9F 92 00  lea         rcx,[??_C@_02DPKJAMEF@?$CFd@]
                    00
  0000000140011A85: E8 1A F7 FF FF     call        @ILT+415(printf)
  0000000140011A8A: 90                 nop
  0000000140011A8B: 33 C0              xor         eax,eax
  0000000140011A8D: 8B F8              mov         edi,eax
  0000000140011A8F: 48 8D 4D E0        lea         rcx,[rbp-20h]
  0000000140011A93: 48 8D 15 66 92 00  lea         rdx,[14001AD00h]
                    00
  0000000140011A9A: E8 81 F8 FF FF     call        @ILT+795(_RTC_CheckStackVars)
  0000000140011A9F: 8B C7              mov         eax,edi
  0000000140011AA1: 48 8B 8D 18 01 00  mov         rcx,qword ptr [rbp+118h]
                    00
  0000000140011AA8: 48 33 CD           xor         rcx,rbp
  0000000140011AAB: E8 0D F7 FF FF     call        @ILT+440(__security_check_cookie)
  0000000140011AB0: 48 8D A5 28 01 00  lea         rsp,[rbp+128h]
                    00
  0000000140011AB7: 5F                 pop         rdi
  0000000140011AB8: 5D                 pop         rbp
  0000000140011AB9: C3                 ret
  0000000140011ABA: CC CC CC CC CC CC CC CC CC CC CC CC CC CC CC CC  ŒŒŒŒŒŒŒŒŒŒŒŒŒŒŒŒ
  0000000140011ACA: CC CC CC CC CC CC CC CC CC CC CC CC CC CC CC CC  ŒŒŒŒŒŒŒŒŒŒŒŒŒŒŒŒ
  0000000140011ADA: CC CC CC CC CC CC                                ŒŒŒŒŒŒ
printf:
  0000000140011AE0: 48 89 4C 24 08     mov         qword ptr [rsp+8],rcx
  0000000140011AE5: 48 89 54 24 10     mov         qword ptr [rsp+10h],rdx
  0000000140011AEA: 4C 89 44 24 18     mov         qword ptr [rsp+18h],r8
  0000000140011AEF: 4C 89 4C 24 20     mov         qword ptr [rsp+20h],r9
  0000000140011AF4: 55                 push        rbp
  0000000140011AF5: 57                 push        rdi
  0000000140011AF6: 48 81 EC 48 01 00  sub         rsp,148h
                    00
  0000000140011AFD: 48 8D 6C 24 20     lea         rbp,[rsp+20h]
  0000000140011B02: 48 8D 7C 24 20     lea         rdi,[rsp+20h]
  0000000140011B07: B9 1A 00 00 00     mov         ecx,1Ah
  0000000140011B0C: B8 CC CC CC CC     mov         eax,0CCCCCCCCh
  0000000140011B11: F3 AB              rep stos    dword ptr [rdi]
  0000000140011B13: 48 8B 8C 24 68 01  mov         rcx,qword ptr [rsp+168h]
                    00 00
  0000000140011B1B: 48 8B 05 DE B4 00  mov         rax,qword ptr [__security_cookie]
                    00
  0000000140011B22: 48 33 C5           xor         rax,rbp
  0000000140011B25: 48 89 85 18 01 00  mov         qword ptr [rbp+118h],rax
                    00
  0000000140011B2C: 48 8D 0D EC 04 01  lea         rcx,[14002201Fh]
                    00
  0000000140011B33: E8 4C F8 FF FF     call        @ILT+895(__CheckForDebuggerJustMyCode)
  0000000140011B38: 90                 nop
  0000000140011B39: 48 8D 85 48 01 00  lea         rax,[rbp+148h]
                    00
  0000000140011B40: 48 89 45 28        mov         qword ptr [rbp+28h],rax
  0000000140011B44: B9 01 00 00 00     mov         ecx,1
  0000000140011B49: FF 15 C1 F7 00 00  call        qword ptr [__imp___acrt_iob_func]
  0000000140011B4F: 4C 8B 4D 28        mov         r9,qword ptr [rbp+28h]
  0000000140011B53: 45 33 C0           xor         r8d,r8d
  0000000140011B56: 48 8B 95 40 01 00  mov         rdx,qword ptr [rbp+140h]
                    00
  0000000140011B5D: 48 8B C8           mov         rcx,rax
  0000000140011B60: E8 0D F6 FF FF     call        @ILT+365(_vfprintf_l)
  0000000140011B65: 89 45 04           mov         dword ptr [rbp+4],eax
  0000000140011B68: 48 C7 45 28 00 00  mov         qword ptr [rbp+28h],0
                    00 00
  0000000140011B70: 8B 45 04           mov         eax,dword ptr [rbp+4]
  0000000140011B73: 8B F8              mov         edi,eax
  0000000140011B75: 48 8D 4D E0        lea         rcx,[rbp-20h]
  0000000140011B79: 48 8D 15 80 90 00  lea         rdx,[14001AC00h]
                    00
  0000000140011B80: E8 9B F7 FF FF     call        @ILT+795(_RTC_CheckStackVars)
  0000000140011B85: 8B C7              mov         eax,edi
  0000000140011B87: 48 8B 8D 18 01 00  mov         rcx,qword ptr [rbp+118h]
                    00
  0000000140011B8E: 48 33 CD           xor         rcx,rbp
  0000000140011B91: E8 27 F6 FF FF     call        @ILT+440(__security_check_cookie)
  0000000140011B96: 48 8D A5 28 01 00  lea         rsp,[rbp+128h]
                    00
  0000000140011B9D: 5F                 pop         rdi
  0000000140011B9E: 5D                 pop         rbp
  0000000140011B9F: C3                 ret
  0000000140011BA0: CC CC CC CC CC CC CC CC CC CC CC CC CC CC CC CC  ŒŒŒŒŒŒŒŒŒŒŒŒŒŒŒŒ
  0000000140011BB0: CC CC CC CC CC CC CC CC CC CC CC CC CC CC CC CC  ŒŒŒŒŒŒŒŒŒŒŒŒŒŒŒŒ
  0000000140011BC0: CC CC CC CC CC CC CC CC CC CC CC CC CC CC CC CC  ŒŒŒŒŒŒŒŒŒŒŒŒŒŒŒŒ
scanf:
  0000000140011BD0: 48 89 4C 24 08     mov         qword ptr [rsp+8],rcx
  0000000140011BD5: 48 89 54 24 10     mov         qword ptr [rsp+10h],rdx
  0000000140011BDA: 4C 89 44 24 18     mov         qword ptr [rsp+18h],r8
  0000000140011BDF: 4C 89 4C 24 20     mov         qword ptr [rsp+20h],r9
  0000000140011BE4: 55                 push        rbp
  0000000140011BE5: 57                 push        rdi
  0000000140011BE6: 48 81 EC 48 01 00  sub         rsp,148h
                    00
  0000000140011BED: 48 8D 6C 24 20     lea         rbp,[rsp+20h]
  0000000140011BF2: 48 8D 7C 24 20     lea         rdi,[rsp+20h]
  0000000140011BF7: B9 1A 00 00 00     mov         ecx,1Ah
  0000000140011BFC: B8 CC CC CC CC     mov         eax,0CCCCCCCCh
  0000000140011C01: F3 AB              rep stos    dword ptr [rdi]
  0000000140011C03: 48 8B 8C 24 68 01  mov         rcx,qword ptr [rsp+168h]
                    00 00
  0000000140011C0B: 48 8B 05 EE B3 00  mov         rax,qword ptr [__security_cookie]
                    00
  0000000140011C12: 48 33 C5           xor         rax,rbp
  0000000140011C15: 48 89 85 18 01 00  mov         qword ptr [rbp+118h],rax
                    00
  0000000140011C1C: 48 8D 0D FC 03 01  lea         rcx,[14002201Fh]
                    00
  0000000140011C23: E8 5C F7 FF FF     call        @ILT+895(__CheckForDebuggerJustMyCode)
  0000000140011C28: 90                 nop
  0000000140011C29: 48 8D 85 48 01 00  lea         rax,[rbp+148h]
                    00
  0000000140011C30: 48 89 45 28        mov         qword ptr [rbp+28h],rax
  0000000140011C34: 33 C9              xor         ecx,ecx
  0000000140011C36: FF 15 D4 F6 00 00  call        qword ptr [__imp___acrt_iob_func]
  0000000140011C3C: 4C 8B 4D 28        mov         r9,qword ptr [rbp+28h]
  0000000140011C40: 45 33 C0           xor         r8d,r8d
  0000000140011C43: 48 8B 95 40 01 00  mov         rdx,qword ptr [rbp+140h]
                    00
  0000000140011C4A: 48 8B C8           mov         rcx,rax
  0000000140011C4D: E8 7B F4 FF FF     call        @ILT+200(_vfscanf_l)
  0000000140011C52: 89 45 04           mov         dword ptr [rbp+4],eax
  0000000140011C55: 48 C7 45 28 00 00  mov         qword ptr [rbp+28h],0
                    00 00
  0000000140011C5D: 8B 45 04           mov         eax,dword ptr [rbp+4]
  0000000140011C60: 8B F8              mov         edi,eax
  0000000140011C62: 48 8D 4D E0        lea         rcx,[rbp-20h]
  0000000140011C66: 48 8D 15 13 90 00  lea         rdx,[14001AC80h]
                    00
  0000000140011C6D: E8 AE F6 FF FF     call        @ILT+795(_RTC_CheckStackVars)
  0000000140011C72: 8B C7              mov         eax,edi
  0000000140011C74: 48 8B 8D 18 01 00  mov         rcx,qword ptr [rbp+118h]
                    00
  0000000140011C7B: 48 33 CD           xor         rcx,rbp
  0000000140011C7E: E8 3A F5 FF FF     call        @ILT+440(__security_check_cookie)
  0000000140011C83: 48 8D A5 28 01 00  lea         rsp,[rbp+128h]
                    00
  0000000140011C8A: 5F                 pop         rdi
  0000000140011C8B: 5D                 pop         rbp
  0000000140011C8C: C3                 ret
  0000000140011C8D: CC CC CC CC CC CC CC CC CC CC CC CC CC CC CC CC  ŒŒŒŒŒŒŒŒŒŒŒŒŒŒŒŒ
  0000000140011C9D: CC CC CC CC CC CC CC CC CC CC CC CC CC CC CC CC  ŒŒŒŒŒŒŒŒŒŒŒŒŒŒŒŒ
  0000000140011CAD: CC CC CC CC CC CC CC CC CC CC CC CC CC CC CC CC  ŒŒŒŒŒŒŒŒŒŒŒŒŒŒŒŒ
  0000000140011CBD: CC CC CC                                         ŒŒŒ
_RTC_AllocaHelper:
  0000000140011CC0: 48 83 EC 08        sub         rsp,8
  0000000140011CC4: 4C 8B C9           mov         r9,rcx
  0000000140011CC7: 48 85 C9           test        rcx,rcx
  0000000140011CCA: 74 2A              je          0000000140011CF6
  0000000140011CCC: 48 85 D2           test        rdx,rdx
  0000000140011CCF: 74 25              je          0000000140011CF6
  0000000140011CD1: 4D 85 C0           test        r8,r8
  0000000140011CD4: 74 20              je          0000000140011CF6
  0000000140011CD6: 48 89 3C 24        mov         qword ptr [rsp],rdi
  0000000140011CDA: B0 CC              mov         al,0CCh
  0000000140011CDC: 48 8B F9           mov         rdi,rcx
  0000000140011CDF: 48 8B CA           mov         rcx,rdx
  0000000140011CE2: F3 AA              rep stos    byte ptr [rdi]
  0000000140011CE4: 49 8B 00           mov         rax,qword ptr [r8]
  0000000140011CE7: 48 8B 3C 24        mov         rdi,qword ptr [rsp]
  0000000140011CEB: 49 89 41 04        mov         qword ptr [r9+4],rax
  0000000140011CEF: 49 89 51 0C        mov         qword ptr [r9+0Ch],rdx
  0000000140011CF3: 4D 89 08           mov         qword ptr [r8],r9
  0000000140011CF6: 48 83 C4 08        add         rsp,8
  0000000140011CFA: C3                 ret
  0000000140011CFB: CC CC CC CC CC CC CC CC CC CC CC CC CC CC CC CC  ŒŒŒŒŒŒŒŒŒŒŒŒŒŒŒŒ
  0000000140011D0B: CC CC CC CC CC                                   ŒŒŒŒŒ
_RTC_CheckStackVars:
  0000000140011D10: 48 89 5C 24 10     mov         qword ptr [rsp+10h],rbx
  0000000140011D15: 48 89 6C 24 18     mov         qword ptr [rsp+18h],rbp
  0000000140011D1A: 56                 push        rsi
  0000000140011D1B: 48 83 EC 20        sub         rsp,20h
  0000000140011D1F: 33 DB              xor         ebx,ebx
  0000000140011D21: 48 8B F2           mov         rsi,rdx
  0000000140011D24: 48 8B E9           mov         rbp,rcx
  0000000140011D27: 39 1A              cmp         dword ptr [rdx],ebx
  0000000140011D29: 7E 56              jle         0000000140011D81
  0000000140011D2B: 48 89 7C 24 30     mov         qword ptr [rsp+30h],rdi
  0000000140011D30: 8B FB              mov         edi,ebx
  0000000140011D32: 0F 1F 40 00        nop         dword ptr [rax]
  0000000140011D36: 66 66 0F 1F 84 00  nop         word ptr [rax+rax]
                    00 00 00 00
  0000000140011D40: 48 8B 56 08        mov         rdx,qword ptr [rsi+8]
  0000000140011D44: 48 63 0C 3A        movsxd      rcx,dword ptr [rdx+rdi]
  0000000140011D48: 81 7C 29 FC CC CC  cmp         dword ptr [rcx+rbp-4],0CCCCCCCCh
                    CC CC
  0000000140011D50: 75 11              jne         0000000140011D63
  0000000140011D52: 48 63 44 3A 04     movsxd      rax,dword ptr [rdx+rdi+4]
  0000000140011D57: 48 03 C1           add         rax,rcx
  0000000140011D5A: 81 3C 28 CC CC CC  cmp         dword ptr [rax+rbp],0CCCCCCCCh
                    CC
  0000000140011D61: 74 0F              je          0000000140011D72
  0000000140011D63: 48 8B 4C 24 28     mov         rcx,qword ptr [rsp+28h]
  0000000140011D68: 48 8B 54 3A 08     mov         rdx,qword ptr [rdx+rdi+8]
  0000000140011D6D: E8 FF F4 FF FF     call        @ILT+620(?_RTC_StackFailure@@YAXPEAXPEBD@Z)
  0000000140011D72: FF C3              inc         ebx
  0000000140011D74: 48 83 C7 10        add         rdi,10h
  0000000140011D78: 3B 1E              cmp         ebx,dword ptr [rsi]
  0000000140011D7A: 7C C4              jl          0000000140011D40
  0000000140011D7C: 48 8B 7C 24 30     mov         rdi,qword ptr [rsp+30h]
  0000000140011D81: 48 8B 5C 24 38     mov         rbx,qword ptr [rsp+38h]
  0000000140011D86: 48 8B 6C 24 40     mov         rbp,qword ptr [rsp+40h]
  0000000140011D8B: 48 83 C4 20        add         rsp,20h
  0000000140011D8F: 5E                 pop         rsi
  0000000140011D90: C3                 ret
  0000000140011D91: CC CC CC CC CC CC CC CC CC CC CC CC CC CC CC CC  ŒŒŒŒŒŒŒŒŒŒŒŒŒŒŒŒ
  0000000140011DA1: CC CC CC CC CC CC CC CC CC CC CC CC CC CC CC CC  ŒŒŒŒŒŒŒŒŒŒŒŒŒŒŒŒ
  0000000140011DB1: CC CC CC CC CC CC CC CC CC CC CC CC CC CC CC     ŒŒŒŒŒŒŒŒŒŒŒŒŒŒŒ
_RTC_CheckStackVars2:
  0000000140011DC0: 40 53              push        rbx
  0000000140011DC2: 57                 push        rdi
  0000000140011DC3: 48 83 EC 28        sub         rsp,28h
  0000000140011DC7: 48 89 6C 24 40     mov         qword ptr [rsp+40h],rbp
  0000000140011DCC: 33 FF              xor         edi,edi
  0000000140011DCE: 4C 89 7C 24 20     mov         qword ptr [rsp+20h],r15
  0000000140011DD3: 49 8B D8           mov         rbx,r8
  0000000140011DD6: 48 8B EA           mov         rbp,rdx
  0000000140011DD9: 4C 8B F9           mov         r15,rcx
  0000000140011DDC: 48 85 D2           test        rdx,rdx
  0000000140011DDF: 74 5C              je          0000000140011E3D
  0000000140011DE1: 48 89 74 24 48     mov         qword ptr [rsp+48h],rsi
  0000000140011DE6: 8B F7              mov         esi,edi
  0000000140011DE8: 39 3A              cmp         dword ptr [rdx],edi
  0000000140011DEA: 7E 4C              jle         0000000140011E38
  0000000140011DEC: 4C 89 74 24 50     mov         qword ptr [rsp+50h],r14
  0000000140011DF1: 44 8B F7           mov         r14d,edi
  0000000140011DF4: 48 8B 55 08        mov         rdx,qword ptr [rbp+8]
  0000000140011DF8: 4A 63 0C 32        movsxd      rcx,dword ptr [rdx+r14]
  0000000140011DFC: 42 81 7C 39 FC CC  cmp         dword ptr [rcx+r15-4],0CCCCCCCCh
                    CC CC CC
  0000000140011E05: 75 12              jne         0000000140011E19
  0000000140011E07: 4A 63 44 32 04     movsxd      rax,dword ptr [rdx+r14+4]
  0000000140011E0C: 48 03 C1           add         rax,rcx
  0000000140011E0F: 42 81 3C 38 CC CC  cmp         dword ptr [rax+r15],0CCCCCCCCh
                    CC CC
  0000000140011E17: 74 0F              je          0000000140011E28
  0000000140011E19: 48 8B 4C 24 38     mov         rcx,qword ptr [rsp+38h]
  0000000140011E1E: 4A 8B 54 32 08     mov         rdx,qword ptr [rdx+r14+8]
  0000000140011E23: E8 49 F4 FF FF     call        @ILT+620(?_RTC_StackFailure@@YAXPEAXPEBD@Z)
  0000000140011E28: FF C6              inc         esi
  0000000140011E2A: 49 83 C6 10        add         r14,10h
  0000000140011E2E: 3B 75 00           cmp         esi,dword ptr [rbp]
  0000000140011E31: 7C C1              jl          0000000140011DF4
  0000000140011E33: 4C 8B 74 24 50     mov         r14,qword ptr [rsp+50h]
  0000000140011E38: 48 8B 74 24 48     mov         rsi,qword ptr [rsp+48h]
  0000000140011E3D: 4C 8B 7C 24 20     mov         r15,qword ptr [rsp+20h]
  0000000140011E42: 48 8B C3           mov         rax,rbx
  0000000140011E45: 48 8B 6C 24 40     mov         rbp,qword ptr [rsp+40h]
  0000000140011E4A: 48 85 DB           test        rbx,rbx
  0000000140011E4D: 74 6D              je          0000000140011EBC
  0000000140011E4F: 90                 nop
  0000000140011E50: 48 8B 40 04        mov         rax,qword ptr [rax+4]
  0000000140011E54: FF C7              inc         edi
  0000000140011E56: 48 85 C0           test        rax,rax
  0000000140011E59: 75 F5              jne         0000000140011E50
  0000000140011E5B: 0F 1F 44 00 00     nop         dword ptr [rax+rax]
  0000000140011E60: 81 3B CC CC CC CC  cmp         dword ptr [rbx],0CCCCCCCCh
  0000000140011E66: 75 1B              jne         0000000140011E83
  0000000140011E68: 81 7B 14 CC CC CC  cmp         dword ptr [rbx+14h],0CCCCCCCCh
                    CC
  0000000140011E6F: 75 12              jne         0000000140011E83
  0000000140011E71: 81 7B 18 CC CC CC  cmp         dword ptr [rbx+18h],0CCCCCCCCh
                    CC
  0000000140011E78: 75 09              jne         0000000140011E83
  0000000140011E7A: 81 7B 1C CC CC CC  cmp         dword ptr [rbx+1Ch],0CCCCCCCCh
                    CC
  0000000140011E81: 74 10              je          0000000140011E93
  0000000140011E83: 48 8B 4C 24 38     mov         rcx,qword ptr [rsp+38h]
  0000000140011E88: 44 8B C7           mov         r8d,edi
  0000000140011E8B: 48 8B D3           mov         rdx,rbx
  0000000140011E8E: E8 EC F4 FF FF     call        @ILT+890(?_RTC_AllocaFailure@@YAXPEAXPEAU_RTC_ALLOCA_NODE@@H@Z)
  0000000140011E93: 48 8B 43 0C        mov         rax,qword ptr [rbx+0Ch]
  0000000140011E97: 81 7C 18 FC CC CC  cmp         dword ptr [rax+rbx-4],0CCCCCCCCh
                    CC CC
  0000000140011E9F: 74 10              je          0000000140011EB1
  0000000140011EA1: 48 8B 4C 24 38     mov         rcx,qword ptr [rsp+38h]
  0000000140011EA6: 44 8B C7           mov         r8d,edi
  0000000140011EA9: 48 8B D3           mov         rdx,rbx
  0000000140011EAC: E8 CE F4 FF FF     call        @ILT+890(?_RTC_AllocaFailure@@YAXPEAXPEAU_RTC_ALLOCA_NODE@@H@Z)
  0000000140011EB1: 48 8B 5B 04        mov         rbx,qword ptr [rbx+4]
  0000000140011EB5: FF CF              dec         edi
  0000000140011EB7: 48 85 DB           test        rbx,rbx
  0000000140011EBA: 75 A4              jne         0000000140011E60
  0000000140011EBC: 48 83 C4 28        add         rsp,28h
  0000000140011EC0: 5F                 pop         rdi
  0000000140011EC1: 5B                 pop         rbx
  0000000140011EC2: C3                 ret
  0000000140011EC3: CC CC CC CC CC CC CC CC CC CC CC CC CC CC CC CC  ŒŒŒŒŒŒŒŒŒŒŒŒŒŒŒŒ
  0000000140011ED3: CC CC CC CC CC CC CC CC CC CC CC CC CC CC CC CC  ŒŒŒŒŒŒŒŒŒŒŒŒŒŒŒŒ
  0000000140011EE3: CC CC CC CC CC CC CC CC CC CC CC CC CC CC CC CC  ŒŒŒŒŒŒŒŒŒŒŒŒŒŒŒŒ
  0000000140011EF3: CC CC CC CC CC CC CC CC CC CC CC CC CC CC CC CC  ŒŒŒŒŒŒŒŒŒŒŒŒŒŒŒŒ
  0000000140011F03: CC CC CC CC CC CC CC CC CC CC CC CC CC           ŒŒŒŒŒŒŒŒŒŒŒŒŒ
_CRT_RTC_INIT:
  0000000140011F10: 48 8D 05 23 F3 FF  lea         rax,[@ILT+565(_CrtDbgReport)]
                    FF
  0000000140011F17: C3                 ret
  0000000140011F18: CC CC CC CC CC CC CC CC                          ŒŒŒŒŒŒŒŒ
_CRT_RTC_INITW:
  0000000140011F20: 48 8D 05 51 F1 FF  lea         rax,[@ILT+115(_CrtDbgReportW)]
                    FF
  0000000140011F27: C3                 ret
  0000000140011F28: CC CC CC CC CC CC CC CC                          ŒŒŒŒŒŒŒŒ
_RTC_InitBase:
  0000000140011F30: 48 83 EC 38        sub         rsp,38h
  0000000140011F34: 80 3D 96 B2 00 00  cmp         byte ptr [14001D1D1h],0
                    00
  0000000140011F3B: 75 2D              jne         0000000140011F6A
  0000000140011F3D: 41 B9 01 00 00 00  mov         r9d,1
  0000000140011F43: C6 05 87 B2 00 00  mov         byte ptr [14001D1D1h],1
                    01
  0000000140011F4A: 45 33 C0           xor         r8d,r8d
  0000000140011F4D: C7 44 24 20 00 00  mov         dword ptr [rsp+20h],0
                    00 00
  0000000140011F55: 33 D2              xor         edx,edx
  0000000140011F57: 33 C9              xor         ecx,ecx
  0000000140011F59: E8 DE F0 FF FF     call        @ILT+55(_CRT_RTC_INITW)
  0000000140011F5E: 48 8B C8           mov         rcx,rax
  0000000140011F61: 48 83 C4 38        add         rsp,38h
  0000000140011F65: E9 9F F1 FF FF     jmp         @ILT+260(_RTC_SetErrorFuncW)
  0000000140011F6A: 48 83 C4 38        add         rsp,38h
  0000000140011F6E: C3                 ret
  0000000140011F6F: CC CC CC CC CC CC CC CC CC CC CC CC CC CC CC CC  ŒŒŒŒŒŒŒŒŒŒŒŒŒŒŒŒ
  0000000140011F7F: CC                                               Œ
_RTC_Shutdown:
  0000000140011F80: 48 83 EC 38        sub         rsp,38h
  0000000140011F84: 41 B9 01 00 00 00  mov         r9d,1
  0000000140011F8A: C7 44 24 20 01 00  mov         dword ptr [rsp+20h],1
                    00 00
  0000000140011F92: 45 33 C0           xor         r8d,r8d
  0000000140011F95: 33 D2              xor         edx,edx
  0000000140011F97: 33 C9              xor         ecx,ecx
  0000000140011F99: E8 9E F0 FF FF     call        @ILT+55(_CRT_RTC_INITW)
  0000000140011F9E: 48 83 C4 38        add         rsp,38h
  0000000140011FA2: C3                 ret
  0000000140011FA3: CC CC CC CC CC CC CC CC CC CC CC CC CC           ŒŒŒŒŒŒŒŒŒŒŒŒŒ
__CheckForDebuggerJustMyCode:
  0000000140011FB0: 48 89 4C 24 08     mov         qword ptr [rsp+8],rcx
  0000000140011FB5: 48 83 EC 38        sub         rsp,38h
  0000000140011FB9: 48 8B 44 24 40     mov         rax,qword ptr [rsp+40h]
  0000000140011FBE: 48 89 44 24 20     mov         qword ptr [rsp+20h],rax
  0000000140011FC3: 48 8B 44 24 40     mov         rax,qword ptr [rsp+40h]
  0000000140011FC8: 0F B6 00           movzx       eax,byte ptr [rax]
  0000000140011FCB: 85 C0              test        eax,eax
  0000000140011FCD: 74 18              je          0000000140011FE7
  0000000140011FCF: 83 3D 66 B9 00 00  cmp         dword ptr [__DebuggerCurrentSteppingThreadId],0
                    00
  0000000140011FD6: 74 0F              je          0000000140011FE7
  0000000140011FD8: FF 15 AA F0 00 00  call        qword ptr [__imp_GetCurrentThreadId]
  0000000140011FDE: 39 05 58 B9 00 00  cmp         dword ptr [__DebuggerCurrentSteppingThreadId],eax
  0000000140011FE4: 75 01              jne         0000000140011FE7
  0000000140011FE6: 90                 nop
  0000000140011FE7: 48 83 C4 38        add         rsp,38h
  0000000140011FEB: C3                 ret
  0000000140011FEC: CC CC CC CC CC CC CC CC CC CC CC CC CC CC CC CC  ŒŒŒŒŒŒŒŒŒŒŒŒŒŒŒŒ
  0000000140011FFC: CC CC CC CC                                      ŒŒŒŒ
__GSHandlerCheck:
  0000000140012000: 4C 89 4C 24 20     mov         qword ptr [rsp+20h],r9
  0000000140012005: 4C 89 44 24 18     mov         qword ptr [rsp+18h],r8
  000000014001200A: 48 89 54 24 10     mov         qword ptr [rsp+10h],rdx
  000000014001200F: 48 89 4C 24 08     mov         qword ptr [rsp+8],rcx
  0000000140012014: 48 83 EC 28        sub         rsp,28h
  0000000140012018: 48 8B 44 24 48     mov         rax,qword ptr [rsp+48h]
  000000014001201D: 4C 8B 40 38        mov         r8,qword ptr [rax+38h]
  0000000140012021: 48 8B 54 24 48     mov         rdx,qword ptr [rsp+48h]
  0000000140012026: 48 8B 4C 24 38     mov         rcx,qword ptr [rsp+38h]
  000000014001202B: E8 AC F0 FF FF     call        @ILT+215(__GSHandlerCheckCommon)
  0000000140012030: B8 01 00 00 00     mov         eax,1
  0000000140012035: 48 83 C4 28        add         rsp,28h
  0000000140012039: C3                 ret
  000000014001203A: CC CC CC CC CC CC CC CC CC CC CC CC CC CC CC CC  ŒŒŒŒŒŒŒŒŒŒŒŒŒŒŒŒ
  000000014001204A: CC CC CC CC CC CC                                ŒŒŒŒŒŒ
__GSHandlerCheckCommon:
  0000000140012050: 4C 89 44 24 18     mov         qword ptr [rsp+18h],r8
  0000000140012055: 48 89 54 24 10     mov         qword ptr [rsp+10h],rdx
  000000014001205A: 48 89 4C 24 08     mov         qword ptr [rsp+8],rcx
  000000014001205F: 48 83 EC 58        sub         rsp,58h
  0000000140012063: 48 8B 44 24 70     mov         rax,qword ptr [rsp+70h]
  0000000140012068: 8B 00              mov         eax,dword ptr [rax]
  000000014001206A: 83 E0 F8           and         eax,0FFFFFFF8h
  000000014001206D: 89 44 24 20        mov         dword ptr [rsp+20h],eax
  0000000140012071: 48 8B 44 24 60     mov         rax,qword ptr [rsp+60h]
  0000000140012076: 48 89 44 24 38     mov         qword ptr [rsp+38h],rax
  000000014001207B: 48 8B 44 24 70     mov         rax,qword ptr [rsp+70h]
  0000000140012080: 8B 00              mov         eax,dword ptr [rax]
  0000000140012082: C1 E8 02           shr         eax,2
  0000000140012085: 83 E0 01           and         eax,1
  0000000140012088: 85 C0              test        eax,eax
  000000014001208A: 74 29              je          00000001400120B5
  000000014001208C: 48 8B 44 24 70     mov         rax,qword ptr [rsp+70h]
  0000000140012091: 48 63 40 04        movsxd      rax,dword ptr [rax+4]
  0000000140012095: 48 8B 4C 24 60     mov         rcx,qword ptr [rsp+60h]
  000000014001209A: 48 03 C8           add         rcx,rax
  000000014001209D: 48 8B C1           mov         rax,rcx
  00000001400120A0: 48 8B 4C 24 70     mov         rcx,qword ptr [rsp+70h]
  00000001400120A5: 8B 49 08           mov         ecx,dword ptr [rcx+8]
  00000001400120A8: F7 D9              neg         ecx
  00000001400120AA: 48 63 C9           movsxd      rcx,ecx
  00000001400120AD: 48 23 C1           and         rax,rcx
  00000001400120B0: 48 89 44 24 38     mov         qword ptr [rsp+38h],rax
  00000001400120B5: 48 63 44 24 20     movsxd      rax,dword ptr [rsp+20h]
  00000001400120BA: 48 8B 4C 24 38     mov         rcx,qword ptr [rsp+38h]
  00000001400120BF: 48 8B 04 01        mov         rax,qword ptr [rcx+rax]
  00000001400120C3: 48 89 44 24 30     mov         qword ptr [rsp+30h],rax
  00000001400120C8: 48 8B 44 24 68     mov         rax,qword ptr [rsp+68h]
  00000001400120CD: 48 8B 40 10        mov         rax,qword ptr [rax+10h]
  00000001400120D1: 8B 40 08           mov         eax,dword ptr [rax+8]
  00000001400120D4: 48 8B 4C 24 68     mov         rcx,qword ptr [rsp+68h]
  00000001400120D9: 48 03 41 08        add         rax,qword ptr [rcx+8]
  00000001400120DD: 48 89 44 24 40     mov         qword ptr [rsp+40h],rax
  00000001400120E2: 48 8B 44 24 60     mov         rax,qword ptr [rsp+60h]
  00000001400120E7: 48 89 44 24 28     mov         qword ptr [rsp+28h],rax
  00000001400120EC: 48 8B 44 24 40     mov         rax,qword ptr [rsp+40h]
  00000001400120F1: 0F B6 40 03        movzx       eax,byte ptr [rax+3]
  00000001400120F5: 24 0F              and         al,0Fh
  00000001400120F7: 0F B6 C0           movzx       eax,al
  00000001400120FA: 85 C0              test        eax,eax
  00000001400120FC: 74 26              je          0000000140012124
  00000001400120FE: 48 8B 44 24 40     mov         rax,qword ptr [rsp+40h]
  0000000140012103: 0F B6 40 03        movzx       eax,byte ptr [rax+3]
  0000000140012107: C0 E8 04           shr         al,4
  000000014001210A: 24 0F              and         al,0Fh
  000000014001210C: 0F B6 C0           movzx       eax,al
  000000014001210F: 6B C0 10           imul        eax,eax,10h
  0000000140012112: 48 98              cdqe
  0000000140012114: 48 8B 4C 24 28     mov         rcx,qword ptr [rsp+28h]
  0000000140012119: 48 03 C8           add         rcx,rax
  000000014001211C: 48 8B C1           mov         rax,rcx
  000000014001211F: 48 89 44 24 28     mov         qword ptr [rsp+28h],rax
  0000000140012124: 48 8B 44 24 28     mov         rax,qword ptr [rsp+28h]
  0000000140012129: 48 8B 4C 24 30     mov         rcx,qword ptr [rsp+30h]
  000000014001212E: 48 33 C8           xor         rcx,rax
  0000000140012131: 48 8B C1           mov         rax,rcx
  0000000140012134: 48 89 44 24 30     mov         qword ptr [rsp+30h],rax
  0000000140012139: 48 8B 4C 24 30     mov         rcx,qword ptr [rsp+30h]
  000000014001213E: E8 7A F0 FF FF     call        @ILT+440(__security_check_cookie)
  0000000140012143: 90                 nop
  0000000140012144: 48 83 C4 58        add         rsp,58h
  0000000140012148: C3                 ret
  0000000140012149: CC CC CC CC CC CC CC CC CC CC CC CC CC CC CC CC  ŒŒŒŒŒŒŒŒŒŒŒŒŒŒŒŒ
  0000000140012159: CC CC CC CC CC CC CC CC CC CC CC CC CC CC CC CC  ŒŒŒŒŒŒŒŒŒŒŒŒŒŒŒŒ
  0000000140012169: CC CC CC CC CC CC CC CC CC CC CC CC CC CC CC CC  ŒŒŒŒŒŒŒŒŒŒŒŒŒŒŒŒ
  0000000140012179: CC CC CC CC CC CC CC CC CC CC CC CC CC CC CC CC  ŒŒŒŒŒŒŒŒŒŒŒŒŒŒŒŒ
  0000000140012189: CC CC CC CC CC CC CC                             ŒŒŒŒŒŒŒ
  0000000140012190: CC                 int         3
  0000000140012191: CC                 int         3
  0000000140012192: CC                 int         3
  0000000140012193: CC                 int         3
  0000000140012194: CC                 int         3
  0000000140012195: CC                 int         3
  0000000140012196: 66 66 0F 1F 84 00  nop         word ptr [rax+rax]
                    00 00 00 00
__security_check_cookie:
  00000001400121A0: 48 3B 0D 59 AE 00  cmp         rcx,qword ptr [__security_cookie]
                    00
  00000001400121A7: 75 10              jne         00000001400121B9
  00000001400121A9: 48 C1 C1 10        rol         rcx,10h
  00000001400121AD: 66 F7 C1 FF FF     test        cx,0FFFFh
  00000001400121B2: 75 01              jne         00000001400121B5
  00000001400121B4: C3                 ret
  00000001400121B5: 48 C1 C9 10        ror         rcx,10h
  00000001400121B9: E9 A6 EE FF FF     jmp         @ILT+95(__report_gsfailure)
  00000001400121BE: CC CC CC CC CC CC CC CC CC CC CC CC CC CC CC CC  ŒŒŒŒŒŒŒŒŒŒŒŒŒŒŒŒ
  00000001400121CE: CC CC                                            ŒŒ
pre_c_initialization:
  00000001400121D0: 48 83 EC 28        sub         rsp,28h
  00000001400121D4: E8 EA EE FF FF     call        @ILT+190(?set_app_type@__scrt_main_policy@@SAXXZ)
  00000001400121D9: E8 65 F1 FF FF     call        @ILT+830(?set_fmode@__scrt_file_policy@@SAXXZ)
  00000001400121DE: E8 2C EE FF FF     call        @ILT+10(?set_commode@__scrt_file_policy@@SAXXZ)
  00000001400121E3: 90                 nop
  00000001400121E4: B9 01 00 00 00     mov         ecx,1
  00000001400121E9: E8 FD EE FF FF     call        @ILT+230(__scrt_initialize_onexit_tables)
  00000001400121EE: 0F B6 C0           movzx       eax,al
  00000001400121F1: 85 C0              test        eax,eax
  00000001400121F3: 75 0B              jne         0000000140012200
  00000001400121F5: B9 07 00 00 00     mov         ecx,7
  00000001400121FA: E8 2B F1 FF FF     call        @ILT+805(__scrt_fastfail)
  00000001400121FF: 90                 nop
  0000000140012200: E8 03 F0 FF FF     call        @ILT+515(_RTC_Initialize)
  0000000140012205: 48 8D 0D 29 F0 FF  lea         rcx,[@ILT+560(_RTC_Terminate)]
                    FF
  000000014001220C: E8 52 EF FF FF     call        @ILT+350(atexit)
  0000000140012211: 90                 nop
  0000000140012212: E8 14 F0 FF FF     call        @ILT+550(?configure_argv@__scrt_narrow_argv_policy@@SAHXZ)
  0000000140012217: 85 C0              test        eax,eax
  0000000140012219: 74 0B              je          0000000140012226
  000000014001221B: B9 07 00 00 00     mov         ecx,7
  0000000140012220: E8 05 F1 FF FF     call        @ILT+805(__scrt_fastfail)
  0000000140012225: 90                 nop
  0000000140012226: E8 89 EE FF FF     call        @ILT+175(?__scrt_initialize_type_info@@YAXXZ)
  000000014001222B: 90                 nop
  000000014001222C: E8 0E F0 FF FF     call        @ILT+570(__scrt_is_user_matherr_present)
  0000000140012231: 85 C0              test        eax,eax
  0000000140012233: 74 0D              je          0000000140012242
  0000000140012235: 48 8D 0D 73 EE FF  lea         rcx,[@ILT+170(_matherr)]
                    FF
  000000014001223C: E8 EF EF FF FF     call        @ILT+555(__setusermatherr)
  0000000140012241: 90                 nop
  0000000140012242: E8 47 F1 FF FF     call        @ILT+905(_initialize_invalid_parameter_handler)
  0000000140012247: E8 D1 EE FF FF     call        @ILT+280(_initialize_denormal_control)
  000000014001224C: E8 22 EE FF FF     call        @ILT+110(_get_startup_thread_locale_mode)
  0000000140012251: 8B C8              mov         ecx,eax
  0000000140012253: E8 DE EE FF FF     call        @ILT+305(_configthreadlocale)
  0000000140012258: 90                 nop
  0000000140012259: E8 5A EF FF FF     call        @ILT+435(_should_initialize_environment)
  000000014001225E: 0F B6 C0           movzx       eax,al
  0000000140012261: 85 C0              test        eax,eax
  0000000140012263: 74 06              je          000000014001226B
  0000000140012265: E8 DB EE FF FF     call        @ILT+320(?initialize_environment@__scrt_narrow_environment_policy@@SAHXZ)
  000000014001226A: 90                 nop
  000000014001226B: E8 8E EF FF FF     call        @ILT+505(__scrt_initialize_winrt)
  0000000140012270: 90                 nop
  0000000140012271: E8 1D F1 FF FF     call        @ILT+910(__scrt_initialize_mta)
  0000000140012276: 85 C0              test        eax,eax
  0000000140012278: 74 0B              je          0000000140012285
  000000014001227A: B9 07 00 00 00     mov         ecx,7
  000000014001227F: E8 A6 F0 FF FF     call        @ILT+805(__scrt_fastfail)
  0000000140012284: 90                 nop
  0000000140012285: 33 C0              xor         eax,eax
  0000000140012287: 48 83 C4 28        add         rsp,28h
  000000014001228B: C3                 ret
  000000014001228C: CC CC CC CC CC CC CC CC CC CC CC CC CC CC CC CC  ŒŒŒŒŒŒŒŒŒŒŒŒŒŒŒŒ
  000000014001229C: CC CC CC CC CC CC CC CC CC CC CC CC CC CC CC CC  ŒŒŒŒŒŒŒŒŒŒŒŒŒŒŒŒ
  00000001400122AC: CC CC CC CC CC CC CC CC CC CC CC CC CC CC CC CC  ŒŒŒŒŒŒŒŒŒŒŒŒŒŒŒŒ
  00000001400122BC: CC CC CC CC                                      ŒŒŒŒ
post_pgo_initialization:
  00000001400122C0: 48 83 EC 28        sub         rsp,28h
  00000001400122C4: E8 2A F0 FF FF     call        @ILT+750(__scrt_initialize_default_local_stdio_options)
  00000001400122C9: 33 C0              xor         eax,eax
  00000001400122CB: 48 83 C4 28        add         rsp,28h
  00000001400122CF: C3                 ret
  00000001400122D0: CC CC CC CC CC CC CC CC CC CC CC CC CC CC CC CC  ŒŒŒŒŒŒŒŒŒŒŒŒŒŒŒŒ
pre_cpp_initialization:
  00000001400122E0: 48 83 EC 28        sub         rsp,28h
  00000001400122E4: E8 5B EF FF FF     call        @ILT+575(__scrt_set_unhandled_exception_filter)
  00000001400122E9: E8 8F ED FF FF     call        @ILT+120(_get_startup_new_mode)
  00000001400122EE: 8B C8              mov         ecx,eax
  00000001400122F0: E8 F4 EF FF FF     call        @ILT+740(_set_new_mode)
  00000001400122F5: 90                 nop
  00000001400122F6: 48 83 C4 28        add         rsp,28h
  00000001400122FA: C3                 ret
  00000001400122FB: CC CC CC CC CC CC CC CC CC CC CC CC CC CC CC CC  ŒŒŒŒŒŒŒŒŒŒŒŒŒŒŒŒ
  000000014001230B: CC CC CC CC CC                                   ŒŒŒŒŒ
__scrt_common_main:
  0000000140012310: 48 83 EC 28        sub         rsp,28h
  0000000140012314: E8 80 EF FF FF     call        @ILT+660(__security_init_cookie)
  0000000140012319: E8 12 00 00 00     call        0000000140012330
  000000014001231E: 48 83 C4 28        add         rsp,28h
  0000000140012322: C3                 ret
  0000000140012323: CC CC CC CC CC CC CC CC CC CC CC CC CC           ŒŒŒŒŒŒŒŒŒŒŒŒŒ
__scrt_common_main_seh:
  0000000140012330: 48 83 EC 68        sub         rsp,68h
  0000000140012334: B9 01 00 00 00     mov         ecx,1
  0000000140012339: E8 6E F0 FF FF     call        @ILT+935(__scrt_initialize_crt)
  000000014001233E: 0F B6 C0           movzx       eax,al
  0000000140012341: 85 C0              test        eax,eax
  0000000140012343: 75 0B              jne         0000000140012350
  0000000140012345: B9 07 00 00 00     mov         ecx,7
  000000014001234A: E8 DB EF FF FF     call        @ILT+805(__scrt_fastfail)
  000000014001234F: 90                 nop
  0000000140012350: C6 44 24 20 00     mov         byte ptr [rsp+20h],0
  0000000140012355: E8 E4 EF FF FF     call        @ILT+825(__scrt_acquire_startup_lock)
  000000014001235A: 88 44 24 21        mov         byte ptr [rsp+21h],al
  000000014001235E: 83 3D 13 B5 00 00  cmp         dword ptr [__scrt_current_native_startup_state],1
                    01
  0000000140012365: 75 0D              jne         0000000140012374
  0000000140012367: B9 07 00 00 00     mov         ecx,7
  000000014001236C: E8 B9 EF FF FF     call        @ILT+805(__scrt_fastfail)
  0000000140012371: 90                 nop
  0000000140012372: EB 58              jmp         00000001400123CC
  0000000140012374: 83 3D FD B4 00 00  cmp         dword ptr [__scrt_current_native_startup_state],0
                    00
  000000014001237B: 75 4A              jne         00000001400123C7
  000000014001237D: C7 05 F1 B4 00 00  mov         dword ptr [__scrt_current_native_startup_state],1
                    01 00 00 00
  0000000140012387: 48 8D 15 D2 82 00  lea         rdx,[__xi_z]
                    00
  000000014001238E: 48 8D 0D 9B 7F 00  lea         rcx,[__xi_a]
                    00
  0000000140012395: E8 0F EE FF FF     call        @ILT+420(_initterm_e)
  000000014001239A: 85 C0              test        eax,eax
  000000014001239C: 74 0A              je          00000001400123A8
  000000014001239E: B8 FF 00 00 00     mov         eax,0FFh
  00000001400123A3: E9 29 01 00 00     jmp         00000001400124D1
  00000001400123A8: 48 8D 15 71 7E 00  lea         rdx,[__xc_z]
                    00
  00000001400123AF: 48 8D 0D 4A 7C 00  lea         rcx,[__xc_a]
                    00
  00000001400123B6: E8 79 EF FF FF     call        @ILT+815(_initterm)
  00000001400123BB: C7 05 B3 B4 00 00  mov         dword ptr [__scrt_current_native_startup_state],2
                    02 00 00 00
  00000001400123C5: EB 05              jmp         00000001400123CC
  00000001400123C7: C6 44 24 20 01     mov         byte ptr [rsp+20h],1
  00000001400123CC: 0F B6 4C 24 21     movzx       ecx,byte ptr [rsp+21h]
  00000001400123D1: E8 40 EF FF FF     call        @ILT+785(__scrt_release_startup_lock)
  00000001400123D6: E8 D2 EE FF FF     call        @ILT+680(__scrt_get_dyn_tls_init_callback)
  00000001400123DB: 48 89 44 24 30     mov         qword ptr [rsp+30h],rax
  00000001400123E0: 48 8B 44 24 30     mov         rax,qword ptr [rsp+30h]
  00000001400123E5: 48 83 38 00        cmp         qword ptr [rax],0
  00000001400123E9: 74 3E              je          0000000140012429
  00000001400123EB: 48 8B 4C 24 30     mov         rcx,qword ptr [rsp+30h]
  00000001400123F0: E8 69 ED FF FF     call        @ILT+345(__scrt_is_nonwritable_in_current_image)
  00000001400123F5: 0F B6 C0           movzx       eax,al
  00000001400123F8: 85 C0              test        eax,eax
  00000001400123FA: 74 2D              je          0000000140012429
  00000001400123FC: 48 8B 44 24 30     mov         rax,qword ptr [rsp+30h]
  0000000140012401: 48 8B 00           mov         rax,qword ptr [rax]
  0000000140012404: 48 89 44 24 48     mov         qword ptr [rsp+48h],rax
  0000000140012409: 48 8B 44 24 48     mov         rax,qword ptr [rsp+48h]
  000000014001240E: 48 89 44 24 50     mov         qword ptr [rsp+50h],rax
  0000000140012413: 45 33 C0           xor         r8d,r8d
  0000000140012416: BA 02 00 00 00     mov         edx,2
  000000014001241B: 33 C9              xor         ecx,ecx
  000000014001241D: 48 8B 44 24 50     mov         rax,qword ptr [rsp+50h]
  0000000140012422: FF 15 F8 0B 01 00  call        qword ptr [__guard_dispatch_icall_fptr]
  0000000140012428: 90                 nop
  0000000140012429: E8 B1 EE FF FF     call        @ILT+730(__scrt_get_dyn_tls_dtor_callback)
  000000014001242E: 48 89 44 24 38     mov         qword ptr [rsp+38h],rax
  0000000140012433: 48 8B 44 24 38     mov         rax,qword ptr [rsp+38h]
  0000000140012438: 48 83 38 00        cmp         qword ptr [rax],0
  000000014001243C: 74 1F              je          000000014001245D
  000000014001243E: 48 8B 4C 24 38     mov         rcx,qword ptr [rsp+38h]
  0000000140012443: E8 16 ED FF FF     call        @ILT+345(__scrt_is_nonwritable_in_current_image)
  0000000140012448: 0F B6 C0           movzx       eax,al
  000000014001244B: 85 C0              test        eax,eax
  000000014001244D: 74 0E              je          000000014001245D
  000000014001244F: 48 8B 44 24 38     mov         rax,qword ptr [rsp+38h]
  0000000140012454: 48 8B 08           mov         rcx,qword ptr [rax]
  0000000140012457: E8 0F EF FF FF     call        @ILT+870(_register_thread_local_exe_atexit_callback)
  000000014001245C: 90                 nop
  000000014001245D: E8 1E 01 00 00     call        0000000140012580
  0000000140012462: 89 44 24 28        mov         dword ptr [rsp+28h],eax
  0000000140012466: E8 1F EE FF FF     call        @ILT+645(__scrt_is_managed_app)
  000000014001246B: 0F B6 C0           movzx       eax,al
  000000014001246E: 85 C0              test        eax,eax
  0000000140012470: 75 0A              jne         000000014001247C
  0000000140012472: 8B 4C 24 28        mov         ecx,dword ptr [rsp+28h]
  0000000140012476: E8 DA EB FF FF     call        @ILT+80(exit)
  000000014001247B: 90                 nop
  000000014001247C: 0F B6 44 24 20     movzx       eax,byte ptr [rsp+20h]
  0000000140012481: 85 C0              test        eax,eax
  0000000140012483: 75 06              jne         000000014001248B
  0000000140012485: E8 EB EE FF FF     call        @ILT+880(_cexit)
  000000014001248A: 90                 nop
  000000014001248B: 33 D2              xor         edx,edx
  000000014001248D: B1 01              mov         cl,1
  000000014001248F: E8 BB EC FF FF     call        @ILT+330(__scrt_uninitialize_crt)
  0000000140012494: 8B 44 24 28        mov         eax,dword ptr [rsp+28h]
  0000000140012498: EB 37              jmp         00000001400124D1
  000000014001249A: 89 44 24 24        mov         dword ptr [rsp+24h],eax
  000000014001249E: 8B 44 24 24        mov         eax,dword ptr [rsp+24h]
  00000001400124A2: 89 44 24 2C        mov         dword ptr [rsp+2Ch],eax
  00000001400124A6: E8 DF ED FF FF     call        @ILT+645(__scrt_is_managed_app)
  00000001400124AB: 0F B6 C0           movzx       eax,al
  00000001400124AE: 85 C0              test        eax,eax
  00000001400124B0: 75 0A              jne         00000001400124BC
  00000001400124B2: 8B 4C 24 2C        mov         ecx,dword ptr [rsp+2Ch]
  00000001400124B6: E8 57 ED FF FF     call        @ILT+525(_exit)
  00000001400124BB: 90                 nop
  00000001400124BC: 0F B6 44 24 20     movzx       eax,byte ptr [rsp+20h]
  00000001400124C1: 85 C0              test        eax,eax
  00000001400124C3: 75 06              jne         00000001400124CB
  00000001400124C5: E8 C6 EC FF FF     call        @ILT+395(_c_exit)
  00000001400124CA: 90                 nop
  00000001400124CB: 8B 44 24 2C        mov         eax,dword ptr [rsp+2Ch]
  00000001400124CF: EB 00              jmp         00000001400124D1
  00000001400124D1: 48 83 C4 68        add         rsp,68h
  00000001400124D5: C3                 ret
  00000001400124D6: CC CC CC CC CC CC CC CC CC CC CC CC CC CC CC CC  ŒŒŒŒŒŒŒŒŒŒŒŒŒŒŒŒ
  00000001400124E6: CC CC CC CC CC CC CC CC CC CC CC CC CC CC CC CC  ŒŒŒŒŒŒŒŒŒŒŒŒŒŒŒŒ
  00000001400124F6: CC CC CC CC CC CC CC CC CC CC CC CC CC CC CC CC  ŒŒŒŒŒŒŒŒŒŒŒŒŒŒŒŒ
  0000000140012506: CC CC CC CC CC CC CC CC CC CC CC CC CC CC CC CC  ŒŒŒŒŒŒŒŒŒŒŒŒŒŒŒŒ
  0000000140012516: CC CC CC CC CC CC CC CC CC CC CC CC CC CC CC CC  ŒŒŒŒŒŒŒŒŒŒŒŒŒŒŒŒ
  0000000140012526: CC CC CC CC CC CC CC CC CC CC CC CC CC CC CC CC  ŒŒŒŒŒŒŒŒŒŒŒŒŒŒŒŒ
  0000000140012536: CC CC CC CC CC CC CC CC CC CC                    ŒŒŒŒŒŒŒŒŒŒ
?configure_argv@__scrt_narrow_argv_policy@@SAHXZ:
  0000000140012540: 48 83 EC 28        sub         rsp,28h
  0000000140012544: E8 B0 EC FF FF     call        @ILT+500(_get_startup_argv_mode)
  0000000140012549: 8B C8              mov         ecx,eax
  000000014001254B: E8 57 EE FF FF     call        @ILT+930(_configure_narrow_argv)
  0000000140012550: 48 83 C4 28        add         rsp,28h
  0000000140012554: C3                 ret
  0000000140012555: CC CC CC CC CC CC CC CC CC CC CC                 ŒŒŒŒŒŒŒŒŒŒŒ
?initialize_environment@__scrt_narrow_environment_policy@@SAHXZ:
  0000000140012560: 48 83 EC 28        sub         rsp,28h
  0000000140012564: E8 F1 EA FF FF     call        @ILT+85(_initialize_narrow_environment)
  0000000140012569: 48 83 C4 28        add         rsp,28h
  000000014001256D: C3                 ret
  000000014001256E: CC CC CC CC CC CC CC CC CC CC CC CC CC CC CC CC  ŒŒŒŒŒŒŒŒŒŒŒŒŒŒŒŒ
  000000014001257E: CC CC                                            ŒŒ
invoke_main:
  0000000140012580: 48 83 EC 48        sub         rsp,48h
  0000000140012584: E8 08 EB FF FF     call        @ILT+140(_get_initial_narrow_environment)
  0000000140012589: 48 89 44 24 28     mov         qword ptr [rsp+28h],rax
  000000014001258E: E8 7E ED FF FF     call        @ILT+780(__p___argv)
  0000000140012593: 48 8B 00           mov         rax,qword ptr [rax]
  0000000140012596: 48 89 44 24 30     mov         qword ptr [rsp+30h],rax
  000000014001259B: E8 3A ED FF FF     call        @ILT+725(__p___argc)
  00000001400125A0: 8B 00              mov         eax,dword ptr [rax]
  00000001400125A2: 89 44 24 20        mov         dword ptr [rsp+20h],eax
  00000001400125A6: 4C 8B 44 24 28     mov         r8,qword ptr [rsp+28h]
  00000001400125AB: 48 8B 54 24 30     mov         rdx,qword ptr [rsp+30h]
  00000001400125B0: 8B 4C 24 20        mov         ecx,dword ptr [rsp+20h]
  00000001400125B4: E8 C7 EC FF FF     call        @ILT+635(main)
  00000001400125B9: 48 83 C4 48        add         rsp,48h
  00000001400125BD: C3                 ret
  00000001400125BE: CC CC CC CC CC CC CC CC CC CC CC CC CC CC CC CC  ŒŒŒŒŒŒŒŒŒŒŒŒŒŒŒŒ
  00000001400125CE: CC CC                                            ŒŒ
?set_app_type@__scrt_main_policy@@SAXXZ:
  00000001400125D0: 48 83 EC 28        sub         rsp,28h
  00000001400125D4: B9 01 00 00 00     mov         ecx,1
  00000001400125D9: E8 0C EC FF FF     call        @ILT+485(_set_app_type)
  00000001400125DE: 90                 nop
  00000001400125DF: 48 83 C4 28        add         rsp,28h
  00000001400125E3: C3                 ret
  00000001400125E4: CC CC CC CC CC CC CC CC CC CC CC CC              ŒŒŒŒŒŒŒŒŒŒŒŒ
?set_commode@__scrt_file_policy@@SAXXZ:
  00000001400125F0: 48 83 EC 38        sub         rsp,38h
  00000001400125F4: E8 9C EB FF FF     call        @ILT+400(_get_startup_commit_mode)
  00000001400125F9: 89 44 24 20        mov         dword ptr [rsp+20h],eax
  00000001400125FD: E8 C9 EC FF FF     call        @ILT+710(__p__commode)
  0000000140012602: 8B 4C 24 20        mov         ecx,dword ptr [rsp+20h]
  0000000140012606: 89 08              mov         dword ptr [rax],ecx
  0000000140012608: 48 83 C4 38        add         rsp,38h
  000000014001260C: C3                 ret
  000000014001260D: CC CC CC CC CC CC CC CC CC CC CC CC CC CC CC CC  ŒŒŒŒŒŒŒŒŒŒŒŒŒŒŒŒ
  000000014001261D: CC CC CC                                         ŒŒŒ
?set_fmode@__scrt_file_policy@@SAXXZ:
  0000000140012620: 48 83 EC 28        sub         rsp,28h
  0000000140012624: E8 C6 EB FF FF     call        @ILT+490(_get_startup_file_mode)
  0000000140012629: 8B C8              mov         ecx,eax
  000000014001262B: E8 D5 E9 FF FF     call        @ILT+0(_set_fmode)
  0000000140012630: 90                 nop
  0000000140012631: 48 83 C4 28        add         rsp,28h
  0000000140012635: C3                 ret
  0000000140012636: CC CC CC CC CC CC CC CC CC CC                    ŒŒŒŒŒŒŒŒŒŒ
mainCRTStartup:
  0000000140012640: 48 89 4C 24 08     mov         qword ptr [rsp+8],rcx
  0000000140012645: 48 83 EC 28        sub         rsp,28h
  0000000140012649: E8 C2 FC FF FF     call        0000000140012310
  000000014001264E: 48 83 C4 28        add         rsp,28h
  0000000140012652: C3                 ret
  0000000140012653: CC CC CC CC CC CC CC CC CC CC CC CC CC           ŒŒŒŒŒŒŒŒŒŒŒŒŒ
DebuggerProbe:
  0000000140012660: 48 83 EC 58        sub         rsp,58h
  0000000140012664: 89 4C 24 28        mov         dword ptr [rsp+28h],ecx
  0000000140012668: 48 8D 44 24 60     lea         rax,[rsp+60h]
  000000014001266D: 48 8D 4C 24 20     lea         rcx,[rsp+20h]
  0000000140012672: 48 89 44 24 30     mov         qword ptr [rsp+30h],rax
  0000000140012677: C6 44 24 60 00     mov         byte ptr [rsp+60h],0
  000000014001267C: C7 44 24 20 01 10  mov         dword ptr [rsp+20h],1001h
                    00 00
  0000000140012684: E8 C7 07 00 00     call        0000000140012E50
  0000000140012689: 80 7C 24 60 00     cmp         byte ptr [rsp+60h],0
  000000014001268E: 0F 95 C0           setne       al
  0000000140012691: 48 83 C4 58        add         rsp,58h
  0000000140012695: C3                 ret
  0000000140012696: CC CC CC CC CC CC CC CC CC CC CC CC CC CC CC CC  ŒŒŒŒŒŒŒŒŒŒŒŒŒŒŒŒ
  00000001400126A6: CC CC CC CC CC CC CC CC CC CC                    ŒŒŒŒŒŒŒŒŒŒ
DebuggerRuntime:
  00000001400126B0: 48 83 EC 58        sub         rsp,58h
  00000001400126B4: 89 4C 24 28        mov         dword ptr [rsp+28h],ecx
  00000001400126B8: 48 8D 44 24 60     lea         rax,[rsp+60h]
  00000001400126BD: 48 8D 4C 24 20     lea         rcx,[rsp+20h]
  00000001400126C2: 48 89 44 24 38     mov         qword ptr [rsp+38h],rax
  00000001400126C7: C6 44 24 60 00     mov         byte ptr [rsp+60h],0
  00000001400126CC: C7 44 24 20 02 10  mov         dword ptr [rsp+20h],1002h
                    00 00
  00000001400126D4: 89 54 24 2C        mov         dword ptr [rsp+2Ch],edx
  00000001400126D8: 4C 89 44 24 30     mov         qword ptr [rsp+30h],r8
  00000001400126DD: 4C 89 4C 24 40     mov         qword ptr [rsp+40h],r9
  00000001400126E2: E8 69 07 00 00     call        0000000140012E50
  00000001400126E7: 80 7C 24 60 00     cmp         byte ptr [rsp+60h],0
  00000001400126EC: 0F 95 C0           setne       al
  00000001400126EF: 48 83 C4 58        add         rsp,58h
  00000001400126F3: C3                 ret
  00000001400126F4: CC CC CC CC CC CC CC CC CC CC CC CC CC CC CC CC  ŒŒŒŒŒŒŒŒŒŒŒŒŒŒŒŒ
  0000000140012704: CC CC CC CC CC CC CC CC CC CC CC CC              ŒŒŒŒŒŒŒŒŒŒŒŒ
?_RTC_AllocaFailure@@YAXPEAXPEAU_RTC_ALLOCA_NODE@@H@Z:
  0000000140012710: 40 55              push        rbp
  0000000140012712: 56                 push        rsi
  0000000140012713: 57                 push        rdi
  0000000140012714: 41 56              push        r14
  0000000140012716: 48 81 EC F8 01 00  sub         rsp,1F8h
                    00
  000000014001271D: 48 8B 05 DC A8 00  mov         rax,qword ptr [__security_cookie]
                    00
  0000000140012724: 48 33 C4           xor         rax,rsp
  0000000140012727: 48 89 84 24 E0 01  mov         qword ptr [rsp+1E0h],rax
                    00 00
  000000014001272F: 8B 3D 33 A9 00 00  mov         edi,dword ptr [14001D068h]
  0000000140012735: 45 8B F0           mov         r14d,r8d
  0000000140012738: 48 8B F2           mov         rsi,rdx
  000000014001273B: 48 8B E9           mov         rbp,rcx
  000000014001273E: 83 FF FF           cmp         edi,0FFFFFFFFh
  0000000140012741: 0F 84 03 01 00 00  je          000000014001284A
  0000000140012747: 48 85 D2           test        rdx,rdx
  000000014001274A: 75 19              jne         0000000140012765
  000000014001274C: 4C 8D 0D 5D 8B 00  lea         r9,[??_C@_0EJ@LJKNEOLN@Stack?5area?5around?5_alloca?5memor@]
                    00
  0000000140012753: 41 B8 04 00 00 00  mov         r8d,4
  0000000140012759: 8B D7              mov         edx,edi
  000000014001275B: E8 00 04 00 00     call        0000000140012B60
  0000000140012760: E9 E5 00 00 00     jmp         000000014001284A
  0000000140012765: 4C 8B 4A 0C        mov         r9,qword ptr [rdx+0Ch]
  0000000140012769: 48 8D 8C 24 80 00  lea         rcx,[rsp+80h]
                    00 00
  0000000140012771: 48 89 9C 24 F0 01  mov         qword ptr [rsp+1F0h],rbx
                    00 00
  0000000140012779: 49 83 E9 24        sub         r9,24h
  000000014001277D: 48 8D 5A 20        lea         rbx,[rdx+20h]
  0000000140012781: 4C 8B C3           mov         r8,rbx
  0000000140012784: 48 8D 94 24 98 00  lea         rdx,[rsp+98h]
                    00 00
  000000014001278C: E8 AF 02 00 00     call        0000000140012A40
  0000000140012791: 48 8B 46 0C        mov         rax,qword ptr [rsi+0Ch]
  0000000140012795: 48 8D 0D 6C 8B 00  lea         rcx,[??_C@_01EEMJAFIK@?6@]
                    00
  000000014001279C: 48 89 4C 24 70     mov         qword ptr [rsp+70h],rcx
  00000001400127A1: 4C 8D 0D D8 8B 00  lea         r9,[??_C@_0EI@CLEPFNGI@Stack?5area?5around?5_alloca?5memor@]
                    00
  00000001400127A8: 48 83 E8 24        sub         rax,24h
  00000001400127AC: 48 8D 8C 24 98 00  lea         rcx,[rsp+98h]
                    00 00
  00000001400127B4: 48 89 4C 24 68     mov         qword ptr [rsp+68h],rcx
  00000001400127B9: 4C 8D 05 18 8C 00  lea         r8,[??_C@_0BK@ODNDAGKB@?$CFs?$CFs?$CFp?$CFs?$CFzd?$CFs?$CFd?$CFs?$CFs?$CFs?$CFs?$CFs@]
                    00
  00000001400127C0: 48 8D 0D 45 8B 00  lea         rcx,[??_C@_02LLMPMKNF@?$DO?5@]
                    00
  00000001400127C7: BA 06 01 00 00     mov         edx,106h
  00000001400127CC: 48 89 4C 24 60     mov         qword ptr [rsp+60h],rcx
  00000001400127D1: 48 8D 8C 24 80 00  lea         rcx,[rsp+80h]
                    00 00
  00000001400127D9: 48 89 4C 24 58     mov         qword ptr [rsp+58h],rcx
  00000001400127DE: 48 8D 0D 2B 8B 00  lea         rcx,[??_C@_08OMAHNMHJ@?6Data?3?5?$DM@]
                    00
  00000001400127E5: 48 89 4C 24 50     mov         qword ptr [rsp+50h],rcx
  00000001400127EA: 48 8D 0D 2F 8B 00  lea         rcx,[??_C@_0CK@DKGBICFE@?6Allocation?5number?5within?5this?5@]
                    00
  00000001400127F1: 44 89 74 24 48     mov         dword ptr [rsp+48h],r14d
  00000001400127F6: 48 89 4C 24 40     mov         qword ptr [rsp+40h],rcx
  00000001400127FB: 48 8D 8C 24 D0 00  lea         rcx,[rsp+0D0h]
                    00 00
  0000000140012803: 48 89 44 24 38     mov         qword ptr [rsp+38h],rax
  0000000140012808: 48 8D 05 49 8B 00  lea         rax,[??_C@_07DFDJCKFN@?6Size?3?5@]
                    00
  000000014001280F: 48 89 44 24 30     mov         qword ptr [rsp+30h],rax
  0000000140012814: 48 8D 05 4D 8B 00  lea         rax,[??_C@_0N@MHFFIMFG@?6Address?3?50x@]
                    00
  000000014001281B: 48 89 5C 24 28     mov         qword ptr [rsp+28h],rbx
  0000000140012820: 48 89 44 24 20     mov         qword ptr [rsp+20h],rax
  0000000140012825: E8 ED E9 FF FF     call        @ILT+530(sprintf_s)
  000000014001282A: 4C 8D 8C 24 D0 00  lea         r9,[rsp+0D0h]
                    00 00
  0000000140012832: 41 B8 04 00 00 00  mov         r8d,4
  0000000140012838: 8B D7              mov         edx,edi
  000000014001283A: 48 8B CD           mov         rcx,rbp
  000000014001283D: E8 1E 03 00 00     call        0000000140012B60
  0000000140012842: 48 8B 9C 24 F0 01  mov         rbx,qword ptr [rsp+1F0h]
                    00 00
  000000014001284A: 48 8B 8C 24 E0 01  mov         rcx,qword ptr [rsp+1E0h]
                    00 00
  0000000140012852: 48 33 CC           xor         rcx,rsp
  0000000140012855: E8 63 E9 FF FF     call        @ILT+440(__security_check_cookie)
  000000014001285A: 48 81 C4 F8 01 00  add         rsp,1F8h
                    00
  0000000140012861: 41 5E              pop         r14
  0000000140012863: 5F                 pop         rdi
  0000000140012864: 5E                 pop         rsi
  0000000140012865: 5D                 pop         rbp
  0000000140012866: C3                 ret
  0000000140012867: CC CC CC CC CC CC CC CC CC CC CC CC CC CC CC CC  ŒŒŒŒŒŒŒŒŒŒŒŒŒŒŒŒ
  0000000140012877: CC CC CC CC CC CC CC CC CC CC CC CC CC CC CC CC  ŒŒŒŒŒŒŒŒŒŒŒŒŒŒŒŒ
  0000000140012887: CC CC CC CC CC CC CC CC CC CC CC CC CC CC CC CC  ŒŒŒŒŒŒŒŒŒŒŒŒŒŒŒŒ
  0000000140012897: CC CC CC CC CC CC CC CC CC CC CC CC CC CC CC CC  ŒŒŒŒŒŒŒŒŒŒŒŒŒŒŒŒ
  00000001400128A7: CC CC CC CC CC CC CC CC CC CC CC CC CC CC CC CC  ŒŒŒŒŒŒŒŒŒŒŒŒŒŒŒŒ
  00000001400128B7: CC CC CC CC CC CC CC CC CC                       ŒŒŒŒŒŒŒŒŒ
?_RTC_Failure@@YAXPEAXH@Z:
  00000001400128C0: 83 FA 04           cmp         edx,4
  00000001400128C3: 77 2B              ja          00000001400128F0
  00000001400128C5: 48 63 C2           movsxd      rax,edx
  00000001400128C8: 4C 8D 0D 31 D7 FE  lea         r9,[140000000h]
                    FF
  00000001400128CF: 45 8B 94 81 58 D0  mov         r10d,dword ptr [r9+rax*4+1D058h]
                    01 00
  00000001400128D7: 4D 8B 8C C1 28 AD  mov         r9,qword ptr [r9+rax*8+1AD28h]
                    01 00
  00000001400128DF: 41 83 FA FF        cmp         r10d,0FFFFFFFFh
  00000001400128E3: 74 28              je          000000014001290D
  00000001400128E5: 44 8B C2           mov         r8d,edx
  00000001400128E8: 41 8B D2           mov         edx,r10d
  00000001400128EB: E9 70 02 00 00     jmp         0000000140012B60
  00000001400128F0: 4C 8B 0D 59 84 00  mov         r9,qword ptr [14001AD50h]
                    00
  00000001400128F7: BA 05 00 00 00     mov         edx,5
  00000001400128FC: 41 BA 01 00 00 00  mov         r10d,1
  0000000140012902: 44 8B C2           mov         r8d,edx
  0000000140012905: 41 8B D2           mov         edx,r10d
  0000000140012908: E9 53 02 00 00     jmp         0000000140012B60
  000000014001290D: C3                 ret
  000000014001290E: CC CC CC CC CC CC CC CC CC CC CC CC CC CC CC CC  ŒŒŒŒŒŒŒŒŒŒŒŒŒŒŒŒ
  000000014001291E: CC CC CC CC CC CC CC CC CC CC CC CC CC CC CC CC  ŒŒŒŒŒŒŒŒŒŒŒŒŒŒŒŒ
  000000014001292E: CC CC                                            ŒŒ
?_RTC_StackFailure@@YAXPEAXPEBD@Z:
  0000000140012930: 48 89 5C 24 18     mov         qword ptr [rsp+18h],rbx
  0000000140012935: 48 89 74 24 20     mov         qword ptr [rsp+20h],rsi
  000000014001293A: 57                 push        rdi
  000000014001293B: 48 81 EC 30 04 00  sub         rsp,430h
                    00
  0000000140012942: 48 8B 05 B7 A6 00  mov         rax,qword ptr [__security_cookie]
                    00
  0000000140012949: 48 33 C4           xor         rax,rsp
  000000014001294C: 48 89 84 24 20 04  mov         qword ptr [rsp+420h],rax
                    00 00
  0000000140012954: 8B 3D 06 A7 00 00  mov         edi,dword ptr [14001D060h]
  000000014001295A: 48 8B DA           mov         rbx,rdx
  000000014001295D: 48 8B F1           mov         rsi,rcx
  0000000140012960: 83 FF FF           cmp         edi,0FFFFFFFFh
  0000000140012963: 74 75              je          00000001400129DA
  0000000140012965: 80 3A 00           cmp         byte ptr [rdx],0
  0000000140012968: 74 59              je          00000001400129C3
  000000014001296A: 48 8B CA           mov         rcx,rdx
  000000014001296D: E8 CE 01 00 00     call        0000000140012B40
  0000000140012972: 48 83 C0 2D        add         rax,2Dh
  0000000140012976: 48 3D 00 04 00 00  cmp         rax,400h
  000000014001297C: 77 45              ja          00000001400129C3
  000000014001297E: 4C 8D 05 EB 83 00  lea         r8,[14001AD70h]
                    00
  0000000140012985: BA 00 04 00 00     mov         edx,400h
  000000014001298A: 48 8D 4C 24 20     lea         rcx,[rsp+20h]
  000000014001298F: E8 93 E7 FF FF     call        @ILT+290(strcpy_s)
  0000000140012994: 4C 8B C3           mov         r8,rbx
  0000000140012997: 48 8D 4C 24 20     lea         rcx,[rsp+20h]
  000000014001299C: BA 00 04 00 00     mov         edx,400h
  00000001400129A1: E8 6E E6 FF FF     call        @ILT+15(strcat_s)
  00000001400129A6: 4C 8D 05 E3 83 00  lea         r8,[14001AD90h]
                    00
  00000001400129AD: BA 00 04 00 00     mov         edx,400h
  00000001400129B2: 48 8D 4C 24 20     lea         rcx,[rsp+20h]
  00000001400129B7: E8 58 E6 FF FF     call        @ILT+15(strcat_s)
  00000001400129BC: 4C 8D 4C 24 20     lea         r9,[rsp+20h]
  00000001400129C1: EB 07              jmp         00000001400129CA
  00000001400129C3: 4C 8D 0D AE 88 00  lea         r9,[??_C@_0CG@IAFNJNEE@Stack?5corrupted?5near?5unknown?5va@]
                    00
  00000001400129CA: 41 B8 02 00 00 00  mov         r8d,2
  00000001400129D0: 8B D7              mov         edx,edi
  00000001400129D2: 48 8B CE           mov         rcx,rsi
  00000001400129D5: E8 86 01 00 00     call        0000000140012B60
  00000001400129DA: 48 8B 8C 24 20 04  mov         rcx,qword ptr [rsp+420h]
                    00 00
  00000001400129E2: 48 33 CC           xor         rcx,rsp
  00000001400129E5: E8 D3 E7 FF FF     call        @ILT+440(__security_check_cookie)
  00000001400129EA: 4C 8D 9C 24 30 04  lea         r11,[rsp+430h]
                    00 00
  00000001400129F2: 49 8B 5B 20        mov         rbx,qword ptr [r11+20h]
  00000001400129F6: 49 8B 73 28        mov         rsi,qword ptr [r11+28h]
  00000001400129FA: 49 8B E3           mov         rsp,r11
  00000001400129FD: 5F                 pop         rdi
  00000001400129FE: C3                 ret
  00000001400129FF: CC CC CC CC CC CC CC CC CC CC CC CC CC CC CC CC  ŒŒŒŒŒŒŒŒŒŒŒŒŒŒŒŒ
  0000000140012A0F: CC CC CC CC CC CC CC CC CC CC CC CC CC CC CC CC  ŒŒŒŒŒŒŒŒŒŒŒŒŒŒŒŒ
  0000000140012A1F: CC CC CC CC CC CC CC CC CC CC CC CC CC CC CC CC  ŒŒŒŒŒŒŒŒŒŒŒŒŒŒŒŒ
  0000000140012A2F: CC CC CC CC CC CC CC CC CC CC CC CC CC CC CC CC  ŒŒŒŒŒŒŒŒŒŒŒŒŒŒŒŒ
  0000000140012A3F: CC                                               Œ
_getMemBlockDataString:
  0000000140012A40: 48 89 54 24 10     mov         qword ptr [rsp+10h],rdx
  0000000140012A45: 56                 push        rsi
  0000000140012A46: 41 54              push        r12
  0000000140012A48: 41 55              push        r13
  0000000140012A4A: 41 57              push        r15
  0000000140012A4C: 48 83 EC 28        sub         rsp,28h
  0000000140012A50: 45 33 FF           xor         r15d,r15d
  0000000140012A53: BE 10 00 00 00     mov         esi,10h
  0000000140012A58: 4C 3B CE           cmp         r9,rsi
  0000000140012A5B: 4D 8B E0           mov         r12,r8
  0000000140012A5E: 48 8B C2           mov         rax,rdx
  0000000140012A61: 4C 8B E9           mov         r13,rcx
  0000000140012A64: 49 0F 42 F1        cmovb       rsi,r9
  0000000140012A68: 48 85 F6           test        rsi,rsi
  0000000140012A6B: 74 7A              je          0000000140012AE7
  0000000140012A6D: 48 89 5C 24 50     mov         qword ptr [rsp+50h],rbx
  0000000140012A72: 4C 2B E1           sub         r12,rcx
  0000000140012A75: 48 89 6C 24 60     mov         qword ptr [rsp+60h],rbp
  0000000140012A7A: 4C 8B FE           mov         r15,rsi
  0000000140012A7D: 48 89 7C 24 68     mov         qword ptr [rsp+68h],rdi
  0000000140012A82: 48 8B EA           mov         rbp,rdx
  0000000140012A85: 4C 89 74 24 20     mov         qword ptr [rsp+20h],r14
  0000000140012A8A: 48 8B F9           mov         rdi,rcx
  0000000140012A8D: 41 BE 31 00 00 00  mov         r14d,31h
  0000000140012A93: 0F 1F 40 00        nop         dword ptr [rax]
  0000000140012A97: 66 0F 1F 84 00 00  nop         word ptr [rax+rax]
                    00 00 00
  0000000140012AA0: 42 0F B6 1C 27     movzx       ebx,byte ptr [rdi+r12]
  0000000140012AA5: 4C 8D 05 FC 87 00  lea         r8,[??_C@_05MKKEDADM@?$CF?42X?5@]
                    00
  0000000140012AAC: 44 8B CB           mov         r9d,ebx
  0000000140012AAF: 49 8B D6           mov         rdx,r14
  0000000140012AB2: 48 8B CD           mov         rcx,rbp
  0000000140012AB5: E8 5D E7 FF FF     call        @ILT+530(sprintf_s)
  0000000140012ABA: 49 83 EE 03        sub         r14,3
  0000000140012ABE: 88 1F              mov         byte ptr [rdi],bl
  0000000140012AC0: 48 83 C5 03        add         rbp,3
  0000000140012AC4: 48 8D 7F 01        lea         rdi,[rdi+1]
  0000000140012AC8: 48 83 EE 01        sub         rsi,1
  0000000140012ACC: 75 D2              jne         0000000140012AA0
  0000000140012ACE: 4C 8B 74 24 20     mov         r14,qword ptr [rsp+20h]
  0000000140012AD3: 48 8B 7C 24 68     mov         rdi,qword ptr [rsp+68h]
  0000000140012AD8: 48 8B 6C 24 60     mov         rbp,qword ptr [rsp+60h]
  0000000140012ADD: 48 8B 5C 24 50     mov         rbx,qword ptr [rsp+50h]
  0000000140012AE2: 48 8B 44 24 58     mov         rax,qword ptr [rsp+58h]
  0000000140012AE7: 4A 8D 04 78        lea         rax,[rax+r15*2]
  0000000140012AEB: 43 C6 04 2F 00     mov         byte ptr [r15+r13],0
  0000000140012AF0: 41 C6 04 07 00     mov         byte ptr [r15+rax],0
  0000000140012AF5: 48 83 C4 28        add         rsp,28h
  0000000140012AF9: 41 5F              pop         r15
  0000000140012AFB: 41 5D              pop         r13
  0000000140012AFD: 41 5C              pop         r12
  0000000140012AFF: 5E                 pop         rsi
  0000000140012B00: C3                 ret
  0000000140012B01: CC CC CC CC CC CC CC CC CC CC CC CC CC CC CC CC  ŒŒŒŒŒŒŒŒŒŒŒŒŒŒŒŒ
  0000000140012B11: CC CC CC CC CC CC CC CC CC CC CC CC CC CC CC CC  ŒŒŒŒŒŒŒŒŒŒŒŒŒŒŒŒ
  0000000140012B21: CC CC CC CC CC CC CC CC CC CC CC CC CC CC CC CC  ŒŒŒŒŒŒŒŒŒŒŒŒŒŒŒŒ
  0000000140012B31: CC CC CC CC CC CC CC CC CC CC CC CC CC CC CC     ŒŒŒŒŒŒŒŒŒŒŒŒŒŒŒ
_strlen_priv:
  0000000140012B40: 48 8B C1           mov         rax,rcx
  0000000140012B43: 0F B6 10           movzx       edx,byte ptr [rax]
  0000000140012B46: 48 FF C0           inc         rax
  0000000140012B49: 84 D2              test        dl,dl
  0000000140012B4B: 75 F6              jne         0000000140012B43
  0000000140012B4D: 48 2B C1           sub         rax,rcx
  0000000140012B50: 48 FF C8           dec         rax
  0000000140012B53: C3                 ret
  0000000140012B54: CC CC CC CC CC CC CC CC CC CC CC CC              ŒŒŒŒŒŒŒŒŒŒŒŒ
failwithmessage:
  0000000140012B60: 40 53              push        rbx
  0000000140012B62: 55                 push        rbp
  0000000140012B63: 57                 push        rdi
  0000000140012B64: 41 54              push        r12
  0000000140012B66: 41 55              push        r13
  0000000140012B68: 41 56              push        r14
  0000000140012B6A: 41 57              push        r15
  0000000140012B6C: 48 81 EC B0 0E 00  sub         rsp,0EB0h
                    00
  0000000140012B73: 48 8B 05 86 A4 00  mov         rax,qword ptr [__security_cookie]
                    00
  0000000140012B7A: 48 33 C4           xor         rax,rsp
  0000000140012B7D: 48 89 84 24 90 0E  mov         qword ptr [rsp+0E90h],rax
                    00 00
  0000000140012B85: 45 33 ED           xor         r13d,r13d
  0000000140012B88: 49 63 E8           movsxd      rbp,r8d
  0000000140012B8B: 45 8B F5           mov         r14d,r13d
  0000000140012B8E: 4D 8B F9           mov         r15,r9
  0000000140012B91: 44 8B E2           mov         r12d,edx
  0000000140012B94: 48 8B D9           mov         rbx,rcx
  0000000140012B97: E8 F0 E4 FF FF     call        @ILT+135(?_RTC_GetErrorFuncW@@YAP6AHHPEB_WH00ZZPEBX@Z)
  0000000140012B9C: 48 8B F8           mov         rdi,rax
  0000000140012B9F: 48 85 C0           test        rax,rax
  0000000140012BA2: 75 0B              jne         0000000140012BAF
  0000000140012BA4: 48 8B CB           mov         rcx,rbx
  0000000140012BA7: E8 CE E7 FF FF     call        @ILT+885(?_RTC_GetErrorFunc@@YAP6AHHPEBDH00ZZPEBX@Z)
  0000000140012BAC: 4C 8B F0           mov         r14,rax
  0000000140012BAF: 44 89 6C 24 28     mov         dword ptr [rsp+28h],r13d
  0000000140012BB4: 41 B9 FF FF FF FF  mov         r9d,0FFFFFFFFh
  0000000140012BBA: 4D 8B C7           mov         r8,r15
  0000000140012BBD: 4C 89 6C 24 20     mov         qword ptr [rsp+20h],r13
  0000000140012BC2: 33 D2              xor         edx,edx
  0000000140012BC4: 48 89 B4 24 A8 0E  mov         qword ptr [rsp+0EA8h],rsi
                    00 00
  0000000140012BCC: B9 E9 FD 00 00     mov         ecx,0FDE9h
  0000000140012BD1: FF 15 41 E4 00 00  call        qword ptr [__imp_MultiByteToWideChar]
  0000000140012BD7: 3D 00 02 00 00     cmp         eax,200h
  0000000140012BDC: 73 33              jae         0000000140012C11
  0000000140012BDE: 89 44 24 28        mov         dword ptr [rsp+28h],eax
  0000000140012BE2: 41 B9 FF FF FF FF  mov         r9d,0FFFFFFFFh
  0000000140012BE8: 48 8D 84 24 90 0A  lea         rax,[rsp+0A90h]
                    00 00
  0000000140012BF0: 4D 8B C7           mov         r8,r15
  0000000140012BF3: 33 D2              xor         edx,edx
  0000000140012BF5: 48 89 44 24 20     mov         qword ptr [rsp+20h],rax
  0000000140012BFA: B9 E9 FD 00 00     mov         ecx,0FDE9h
  0000000140012BFF: FF 15 13 E4 00 00  call        qword ptr [__imp_MultiByteToWideChar]
  0000000140012C05: 48 8D B4 24 90 0A  lea         rsi,[rsp+0A90h]
                    00 00
  0000000140012C0D: 85 C0              test        eax,eax
  0000000140012C0F: 75 07              jne         0000000140012C18
  0000000140012C11: 48 8D 35 28 85 00  lea         rsi,[??_C@_1GM@CNOOJIHC@?$AAR?$AAu?$AAn?$AAt?$AAi?$AAm?$AAe?$AA?5?$AAC?$AAh?$AAe?$AAc?$AAk?$AA?5?$AAE@]
                    00
  0000000140012C18: B9 02 10 00 00     mov         ecx,1002h
  0000000140012C1D: E8 3E FA FF FF     call        0000000140012660
  0000000140012C22: 84 C0              test        al,al
  0000000140012C24: 74 21              je          0000000140012C47
  0000000140012C26: 48 8D 05 2B 81 00  lea         rax,[14001AD58h]
                    00
  0000000140012C2D: 4C 8B CE           mov         r9,rsi
  0000000140012C30: 8B 14 A8           mov         edx,dword ptr [rax+rbp*4]
  0000000140012C33: 4C 8B C3           mov         r8,rbx
  0000000140012C36: 8B CD              mov         ecx,ebp
  0000000140012C38: E8 73 FA FF FF     call        00000001400126B0
  0000000140012C3D: 84 C0              test        al,al
  0000000140012C3F: 0F 85 4A 01 00 00  jne         0000000140012D8F
  0000000140012C45: EB 02              jmp         0000000140012C49
  0000000140012C47: B0 01              mov         al,1
  0000000140012C49: 4D 85 F6           test        r14,r14
  0000000140012C4C: 75 09              jne         0000000140012C57
  0000000140012C4E: 48 85 FF           test        rdi,rdi
  0000000140012C51: 0F 84 37 01 00 00  je          0000000140012D8E
  0000000140012C57: 84 C0              test        al,al
  0000000140012C59: 74 0E              je          0000000140012C69
  0000000140012C5B: FF 15 A7 E3 00 00  call        qword ptr [__imp_IsDebuggerPresent]
  0000000140012C61: 85 C0              test        eax,eax
  0000000140012C63: 0F 85 25 01 00 00  jne         0000000140012D8E
  0000000140012C69: 48 8D 84 24 60 02  lea         rax,[rsp+260h]
                    00 00
  0000000140012C71: C7 44 24 28 04 01  mov         dword ptr [rsp+28h],104h
                    00 00
  0000000140012C79: 48 8D 4B FB        lea         rcx,[rbx-5]
  0000000140012C7D: 48 89 44 24 20     mov         qword ptr [rsp+20h],rax
  0000000140012C82: 4C 8D 4C 24 40     lea         r9,[rsp+40h]
  0000000140012C87: 41 B8 04 01 00 00  mov         r8d,104h
  0000000140012C8D: 48 8D 54 24 50     lea         rdx,[rsp+50h]
  0000000140012C92: E8 2A E6 FF FF     call        @ILT+700(?_RTC_GetSrcLine@@YAHPEAEPEA_WKPEAH1K@Z)
  0000000140012C97: 48 85 FF           test        rdi,rdi
  0000000140012C9A: 74 2A              je          0000000140012CC6
  0000000140012C9C: 48 89 74 24 30     mov         qword ptr [rsp+30h],rsi
  0000000140012CA1: 48 8D 05 28 85 00  lea         rax,[??_C@_1EA@NFKNIFJP@?$AAR?$AAu?$AAn?$AA?9?$AAT?$AAi?$AAm?$AAe?$AA?5?$AAC?$AAh?$AAe?$AAc?$AAk?$AA?5@]
                    00
  0000000140012CA8: 89 6C 24 28        mov         dword ptr [rsp+28h],ebp
  0000000140012CAC: 4C 8D 8C 24 60 02  lea         r9,[rsp+260h]
                    00 00
  0000000140012CB4: 48 89 44 24 20     mov         qword ptr [rsp+20h],rax
  0000000140012CB9: 48 8D 54 24 50     lea         rdx,[rsp+50h]
  0000000140012CBE: 48 8B C7           mov         rax,rdi
  0000000140012CC1: E9 B5 00 00 00     jmp         0000000140012D7B
  0000000140012CC6: 4C 89 6C 24 38     mov         qword ptr [rsp+38h],r13
  0000000140012CCB: 48 8D 84 24 80 07  lea         rax,[rsp+780h]
                    00 00
  0000000140012CD3: 4C 89 6C 24 30     mov         qword ptr [rsp+30h],r13
  0000000140012CD8: 4C 8D 44 24 50     lea         r8,[rsp+50h]
  0000000140012CDD: C7 44 24 28 0A 03  mov         dword ptr [rsp+28h],30Ah
                    00 00
  0000000140012CE5: 41 B9 FF FF FF FF  mov         r9d,0FFFFFFFFh
  0000000140012CEB: 33 D2              xor         edx,edx
  0000000140012CED: 48 89 44 24 20     mov         qword ptr [rsp+20h],rax
  0000000140012CF2: B9 E9 FD 00 00     mov         ecx,0FDE9h
  0000000140012CF7: FF 15 23 E3 00 00  call        qword ptr [__imp_WideCharToMultiByte]
  0000000140012CFD: 4C 89 6C 24 38     mov         qword ptr [rsp+38h],r13
  0000000140012D02: 4C 8D 84 24 60 02  lea         r8,[rsp+260h]
                    00 00
  0000000140012D0A: 8B D8              mov         ebx,eax
  0000000140012D0C: 4C 89 6C 24 30     mov         qword ptr [rsp+30h],r13
  0000000140012D11: 48 8D 84 24 70 04  lea         rax,[rsp+470h]
                    00 00
  0000000140012D19: C7 44 24 28 0A 03  mov         dword ptr [rsp+28h],30Ah
                    00 00
  0000000140012D21: 41 B9 FF FF FF FF  mov         r9d,0FFFFFFFFh
  0000000140012D27: 48 89 44 24 20     mov         qword ptr [rsp+20h],rax
  0000000140012D2C: 33 D2              xor         edx,edx
  0000000140012D2E: B9 E9 FD 00 00     mov         ecx,0FDE9h
  0000000140012D33: FF 15 E7 E2 00 00  call        qword ptr [__imp_WideCharToMultiByte]
  0000000140012D39: 4C 89 7C 24 30     mov         qword ptr [rsp+30h],r15
  0000000140012D3E: 48 8D 0D F3 84 00  lea         rcx,[??_C@_0BE@GNBOBNCK@Unknown?5Module?5Name@]
                    00
  0000000140012D45: 85 C0              test        eax,eax
  0000000140012D47: 89 6C 24 28        mov         dword ptr [rsp+28h],ebp
  0000000140012D4B: 48 8D 05 CE 84 00  lea         rax,[??_C@_0BB@PFFGGCJP@Unknown?5Filename@]
                    00
  0000000140012D52: 4C 8D 8C 24 70 04  lea         r9,[rsp+470h]
                    00 00
  0000000140012D5A: 4C 0F 44 C9        cmove       r9,rcx
  0000000140012D5E: 48 8D 94 24 80 07  lea         rdx,[rsp+780h]
                    00 00
  0000000140012D66: 85 DB              test        ebx,ebx
  0000000140012D68: 48 0F 44 D0        cmove       rdx,rax
  0000000140012D6C: 48 8D 05 DD 84 00  lea         rax,[??_C@_0CA@IODNCDPG@Run?9Time?5Check?5Failure?5?$CD?$CFd?5?9?5?$CFs@]
                    00
  0000000140012D73: 48 89 44 24 20     mov         qword ptr [rsp+20h],rax
  0000000140012D78: 49 8B C6           mov         rax,r14
  0000000140012D7B: 44 8B 44 24 40     mov         r8d,dword ptr [rsp+40h]
  0000000140012D80: 41 8B CC           mov         ecx,r12d
  0000000140012D83: FF 15 97 02 01 00  call        qword ptr [__guard_dispatch_icall_fptr]
  0000000140012D89: 83 F8 01           cmp         eax,1
  0000000140012D8C: 75 01              jne         0000000140012D8F
  0000000140012D8E: CC                 int         3
  0000000140012D8F: 48 8B B4 24 A8 0E  mov         rsi,qword ptr [rsp+0EA8h]
                    00 00
  0000000140012D97: 48 8B 8C 24 90 0E  mov         rcx,qword ptr [rsp+0E90h]
                    00 00
  0000000140012D9F: 48 33 CC           xor         rcx,rsp
  0000000140012DA2: E8 16 E4 FF FF     call        @ILT+440(__security_check_cookie)
  0000000140012DA7: 48 81 C4 B0 0E 00  add         rsp,0EB0h
                    00
  0000000140012DAE: 41 5F              pop         r15
  0000000140012DB0: 41 5E              pop         r14
  0000000140012DB2: 41 5D              pop         r13
  0000000140012DB4: 41 5C              pop         r12
  0000000140012DB6: 5F                 pop         rdi
  0000000140012DB7: 5D                 pop         rbp
  0000000140012DB8: 5B                 pop         rbx
  0000000140012DB9: C3                 ret
  0000000140012DBA: CC CC CC CC CC CC CC CC CC CC CC CC CC CC CC CC  ŒŒŒŒŒŒŒŒŒŒŒŒŒŒŒŒ
  0000000140012DCA: CC CC CC CC CC CC CC CC CC CC CC CC CC CC CC CC  ŒŒŒŒŒŒŒŒŒŒŒŒŒŒŒŒ
  0000000140012DDA: CC CC CC CC CC CC CC CC CC CC CC CC CC CC CC CC  ŒŒŒŒŒŒŒŒŒŒŒŒŒŒŒŒ
  0000000140012DEA: CC CC CC CC CC CC CC CC CC CC CC CC CC CC CC CC  ŒŒŒŒŒŒŒŒŒŒŒŒŒŒŒŒ
  0000000140012DFA: CC CC CC CC CC CC CC CC CC CC CC CC CC CC CC CC  ŒŒŒŒŒŒŒŒŒŒŒŒŒŒŒŒ
  0000000140012E0A: CC CC CC CC CC CC CC CC CC CC CC CC CC CC CC CC  ŒŒŒŒŒŒŒŒŒŒŒŒŒŒŒŒ
  0000000140012E1A: CC CC CC CC CC CC CC CC CC CC CC CC CC CC CC CC  ŒŒŒŒŒŒŒŒŒŒŒŒŒŒŒŒ
  0000000140012E2A: CC CC CC CC CC CC CC CC CC CC CC CC CC CC CC CC  ŒŒŒŒŒŒŒŒŒŒŒŒŒŒŒŒ
  0000000140012E3A: CC CC CC CC CC CC CC CC CC CC CC CC CC CC CC CC  ŒŒŒŒŒŒŒŒŒŒŒŒŒŒŒŒ
  0000000140012E4A: CC CC CC CC CC CC                                ŒŒŒŒŒŒ
notify_debugger:
  0000000140012E50: 48 83 EC 28        sub         rsp,28h
  0000000140012E54: 4C 8B C9           mov         r9,rcx
  0000000140012E57: 33 D2              xor         edx,edx
  0000000140012E59: 41 B8 05 00 00 00  mov         r8d,5
  0000000140012E5F: B9 88 13 6D 40     mov         ecx,406D1388h
  0000000140012E64: FF 15 A6 E1 00 00  call        qword ptr [__imp_RaiseException]
  0000000140012E6A: EB 00              jmp         0000000140012E6C
  0000000140012E6C: 48 83 C4 28        add         rsp,28h
  0000000140012E70: C3                 ret
  0000000140012E71: CC CC CC CC CC CC CC CC CC CC CC CC CC CC CC     ŒŒŒŒŒŒŒŒŒŒŒŒŒŒŒ
_RTC_UninitUse:
  0000000140012E80: 48 89 5C 24 10     mov         qword ptr [rsp+10h],rbx
  0000000140012E85: 57                 push        rdi
  0000000140012E86: 48 81 EC 30 04 00  sub         rsp,430h
                    00
  0000000140012E8D: 48 8B 05 6C A1 00  mov         rax,qword ptr [__security_cookie]
                    00
  0000000140012E94: 48 33 C4           xor         rax,rsp
  0000000140012E97: 48 89 84 24 20 04  mov         qword ptr [rsp+420h],rax
                    00 00
  0000000140012E9F: 8B 3D BF A1 00 00  mov         edi,dword ptr [14001D064h]
  0000000140012EA5: 48 8B D9           mov         rbx,rcx
  0000000140012EA8: 83 FF FF           cmp         edi,0FFFFFFFFh
  0000000140012EAB: 74 77              je          0000000140012F24
  0000000140012EAD: 48 85 C9           test        rcx,rcx
  0000000140012EB0: 74 56              je          0000000140012F08
  0000000140012EB2: E8 89 FC FF FF     call        0000000140012B40
  0000000140012EB7: 48 83 C0 3A        add         rax,3Ah
  0000000140012EBB: 48 3D 00 04 00 00  cmp         rax,400h
  0000000140012EC1: 77 45              ja          0000000140012F08
  0000000140012EC3: 4C 8D 05 DE 7E 00  lea         r8,[14001ADA8h]
                    00
  0000000140012ECA: BA 00 04 00 00     mov         edx,400h
  0000000140012ECF: 48 8D 4C 24 20     lea         rcx,[rsp+20h]
  0000000140012ED4: E8 4E E2 FF FF     call        @ILT+290(strcpy_s)
  0000000140012ED9: 4C 8B C3           mov         r8,rbx
  0000000140012EDC: 48 8D 4C 24 20     lea         rcx,[rsp+20h]
  0000000140012EE1: BA 00 04 00 00     mov         edx,400h
  0000000140012EE6: E8 29 E1 FF FF     call        @ILT+15(strcat_s)
  0000000140012EEB: 4C 8D 05 C6 7E 00  lea         r8,[14001ADB8h]
                    00
  0000000140012EF2: BA 00 04 00 00     mov         edx,400h
  0000000140012EF7: 48 8D 4C 24 20     lea         rcx,[rsp+20h]
  0000000140012EFC: E8 13 E1 FF FF     call        @ILT+15(strcat_s)
  0000000140012F01: 4C 8D 4C 24 20     lea         r9,[rsp+20h]
  0000000140012F06: EB 07              jmp         0000000140012F0F
  0000000140012F08: 4C 8D 0D E9 84 00  lea         r9,[??_C@_0DE@OHJBPMBP@A?5variable?5is?5being?5used?5withou@]
                    00
  0000000140012F0F: 48 8B 8C 24 38 04  mov         rcx,qword ptr [rsp+438h]
                    00 00
  0000000140012F17: 41 B8 03 00 00 00  mov         r8d,3
  0000000140012F1D: 8B D7              mov         edx,edi
  0000000140012F1F: E8 3C FC FF FF     call        0000000140012B60
  0000000140012F24: 48 8B 8C 24 20 04  mov         rcx,qword ptr [rsp+420h]
                    00 00
  0000000140012F2C: 48 33 CC           xor         rcx,rsp
  0000000140012F2F: E8 89 E2 FF FF     call        @ILT+440(__security_check_cookie)
  0000000140012F34: 48 8B 9C 24 48 04  mov         rbx,qword ptr [rsp+448h]
                    00 00
  0000000140012F3C: 48 81 C4 30 04 00  add         rsp,430h
                    00
  0000000140012F43: 5F                 pop         rdi
  0000000140012F44: C3                 ret
  0000000140012F45: CC CC CC CC CC CC CC CC CC CC CC CC CC CC CC CC  ŒŒŒŒŒŒŒŒŒŒŒŒŒŒŒŒ
  0000000140012F55: CC CC CC CC CC CC CC CC CC CC CC CC CC CC CC CC  ŒŒŒŒŒŒŒŒŒŒŒŒŒŒŒŒ
  0000000140012F65: CC CC CC CC CC CC CC CC CC CC CC CC CC CC CC CC  ŒŒŒŒŒŒŒŒŒŒŒŒŒŒŒŒ
  0000000140012F75: CC CC CC CC CC CC CC CC CC CC CC                 ŒŒŒŒŒŒŒŒŒŒŒ
_vsprintf_s_l:
  0000000140012F80: 48 89 5C 24 08     mov         qword ptr [rsp+8],rbx
  0000000140012F85: 48 89 6C 24 10     mov         qword ptr [rsp+10h],rbp
  0000000140012F8A: 48 89 74 24 18     mov         qword ptr [rsp+18h],rsi
  0000000140012F8F: 57                 push        rdi
  0000000140012F90: 48 83 EC 30        sub         rsp,30h
  0000000140012F94: 49 8B D9           mov         rbx,r9
  0000000140012F97: 49 8B F8           mov         rdi,r8
  0000000140012F9A: 48 8B F2           mov         rsi,rdx
  0000000140012F9D: 48 8B E9           mov         rbp,rcx
  0000000140012FA0: E8 83 E0 FF FF     call        @ILT+35(__local_stdio_printf_options)
  0000000140012FA5: 4C 8B 54 24 60     mov         r10,qword ptr [rsp+60h]
  0000000140012FAA: 4C 8B CF           mov         r9,rdi
  0000000140012FAD: 4C 89 54 24 28     mov         qword ptr [rsp+28h],r10
  0000000140012FB2: 4C 8B C6           mov         r8,rsi
  0000000140012FB5: 48 8B D5           mov         rdx,rbp
  0000000140012FB8: 48 89 5C 24 20     mov         qword ptr [rsp+20h],rbx
  0000000140012FBD: 48 8B 08           mov         rcx,qword ptr [rax]
  0000000140012FC0: E8 97 E3 FF FF     call        @ILT+855(__stdio_common_vsprintf_s)
  0000000140012FC5: 48 8B 5C 24 40     mov         rbx,qword ptr [rsp+40h]
  0000000140012FCA: 85 C0              test        eax,eax
  0000000140012FCC: 48 8B 6C 24 48     mov         rbp,qword ptr [rsp+48h]
  0000000140012FD1: B9 FF FF FF FF     mov         ecx,0FFFFFFFFh
  0000000140012FD6: 48 8B 74 24 50     mov         rsi,qword ptr [rsp+50h]
  0000000140012FDB: 0F 48 C1           cmovs       eax,ecx
  0000000140012FDE: 48 83 C4 30        add         rsp,30h
  0000000140012FE2: 5F                 pop         rdi
  0000000140012FE3: C3                 ret
  0000000140012FE4: CC CC CC CC CC CC CC CC CC CC CC CC CC CC CC CC  ŒŒŒŒŒŒŒŒŒŒŒŒŒŒŒŒ
  0000000140012FF4: CC CC CC CC CC CC CC CC CC CC CC CC              ŒŒŒŒŒŒŒŒŒŒŒŒ
sprintf_s:
  0000000140013000: 4C 89 44 24 18     mov         qword ptr [rsp+18h],r8
  0000000140013005: 4C 89 4C 24 20     mov         qword ptr [rsp+20h],r9
  000000014001300A: 48 83 EC 38        sub         rsp,38h
  000000014001300E: 48 8D 44 24 58     lea         rax,[rsp+58h]
  0000000140013013: 45 33 C9           xor         r9d,r9d
  0000000140013016: 48 89 44 24 20     mov         qword ptr [rsp+20h],rax
  000000014001301B: E8 46 E3 FF FF     call        @ILT+865(_vsprintf_s_l)
  0000000140013020: 48 83 C4 38        add         rsp,38h
  0000000140013024: C3                 ret
  0000000140013025: CC CC CC CC CC CC CC CC CC CC CC                 ŒŒŒŒŒŒŒŒŒŒŒ
?_RTC_GetErrorFunc@@YAP6AHHPEBDH00ZZPEBX@Z:
  0000000140013030: 48 8B 05 A1 A1 00  mov         rax,qword ptr [14001D1D8h]
                    00
  0000000140013037: C3                 ret
  0000000140013038: CC CC CC CC CC CC CC CC                          ŒŒŒŒŒŒŒŒ
?_RTC_GetErrorFuncW@@YAP6AHHPEB_WH00ZZPEBX@Z:
  0000000140013040: 48 8B 05 99 A1 00  mov         rax,qword ptr [14001D1E0h]
                    00
  0000000140013047: C3                 ret
  0000000140013048: CC CC CC CC CC CC CC CC                          ŒŒŒŒŒŒŒŒ
_RTC_GetErrDesc:
  0000000140013050: 83 F9 04           cmp         ecx,4
  0000000140013053: 77 0F              ja          0000000140013064
  0000000140013055: 48 63 C1           movsxd      rax,ecx
  0000000140013058: 48 8D 0D D9 83 00  lea         rcx,[14001B438h]
                    00
  000000014001305F: 48 8B 04 C1        mov         rax,qword ptr [rcx+rax*8]
  0000000140013063: C3                 ret
  0000000140013064: 33 C0              xor         eax,eax
  0000000140013066: C3                 ret
  0000000140013067: CC CC CC CC CC CC CC CC CC                       ŒŒŒŒŒŒŒŒŒ
_RTC_NumErrors:
  0000000140013070: B8 05 00 00 00     mov         eax,5
  0000000140013075: C3                 ret
  0000000140013076: CC CC CC CC CC CC CC CC CC CC                    ŒŒŒŒŒŒŒŒŒŒ
_RTC_SetErrorFunc:
  0000000140013080: 48 8B 05 51 A1 00  mov         rax,qword ptr [14001D1D8h]
                    00
  0000000140013087: 48 89 0D 4A A1 00  mov         qword ptr [14001D1D8h],rcx
                    00
  000000014001308E: 48 C7 05 47 A1 00  mov         qword ptr [14001D1E0h],0
                    00 00 00 00 00
  0000000140013099: C3                 ret
  000000014001309A: CC CC CC CC CC CC                                ŒŒŒŒŒŒ
_RTC_SetErrorFuncW:
  00000001400130A0: 48 8B 05 39 A1 00  mov         rax,qword ptr [14001D1E0h]
                    00
  00000001400130A7: 48 89 0D 32 A1 00  mov         qword ptr [14001D1E0h],rcx
                    00
  00000001400130AE: 48 C7 05 1F A1 00  mov         qword ptr [14001D1D8h],0
                    00 00 00 00 00
  00000001400130B9: C3                 ret
  00000001400130BA: CC CC CC CC CC CC                                ŒŒŒŒŒŒ
_RTC_SetErrorType:
  00000001400130C0: 83 F9 04           cmp         ecx,4
  00000001400130C3: 77 15              ja          00000001400130DA
  00000001400130C5: 48 63 C1           movsxd      rax,ecx
  00000001400130C8: 4C 8D 05 89 9F 00  lea         r8,[?_RTC_ErrorLevels@@3PAHA]
                    00
  00000001400130CF: 41 8B 0C 80        mov         ecx,dword ptr [r8+rax*4]
  00000001400130D3: 41 89 14 80        mov         dword ptr [r8+rax*4],edx
  00000001400130D7: 8B C1              mov         eax,ecx
  00000001400130D9: C3                 ret
  00000001400130DA: B8 FF FF FF FF     mov         eax,0FFFFFFFFh
  00000001400130DF: C3                 ret
  00000001400130E0: CC CC CC CC CC CC CC CC CC CC CC CC CC CC CC CC  ŒŒŒŒŒŒŒŒŒŒŒŒŒŒŒŒ
__raise_securityfailure:
  00000001400130F0: 48 89 4C 24 08     mov         qword ptr [rsp+8],rcx
  00000001400130F5: 48 83 EC 28        sub         rsp,28h
  00000001400130F9: 33 C9              xor         ecx,ecx
  00000001400130FB: FF 15 C7 DF 00 00  call        qword ptr [__imp_SetUnhandledExceptionFilter]
  0000000140013101: 48 8B 4C 24 30     mov         rcx,qword ptr [rsp+30h]
  0000000140013106: FF 15 34 DF 00 00  call        qword ptr [__imp_UnhandledExceptionFilter]
  000000014001310C: FF 15 AE DF 00 00  call        qword ptr [__imp_GetCurrentProcess]
  0000000140013112: BA 09 04 00 C0     mov         edx,0C0000409h
  0000000140013117: 48 8B C8           mov         rcx,rax
  000000014001311A: FF 15 98 DF 00 00  call        qword ptr [__imp_TerminateProcess]
  0000000140013120: 90                 nop
  0000000140013121: 48 83 C4 28        add         rsp,28h
  0000000140013125: C3                 ret
  0000000140013126: CC CC CC CC CC CC CC CC CC CC CC CC CC CC CC CC  ŒŒŒŒŒŒŒŒŒŒŒŒŒŒŒŒ
  0000000140013136: CC CC CC CC CC CC CC CC CC CC                    ŒŒŒŒŒŒŒŒŒŒ
__report_gsfailure:
  0000000140013140: 48 89 4C 24 08     mov         qword ptr [rsp+8],rcx
  0000000140013145: 48 83 EC 38        sub         rsp,38h
  0000000140013149: B9 17 00 00 00     mov         ecx,17h
  000000014001314E: FF 15 5C DF 00 00  call        qword ptr [__imp_IsProcessorFeaturePresent]
  0000000140013154: 85 C0              test        eax,eax
  0000000140013156: 74 07              je          000000014001315F
  0000000140013158: B9 02 00 00 00     mov         ecx,2
  000000014001315D: CD 29              int         29h
  000000014001315F: 48 8D 0D 2A A1 00  lea         rcx,[14001D290h]
                    00
  0000000140013166: E8 F5 03 00 00     call        0000000140013560
  000000014001316B: 48 8B 44 24 38     mov         rax,qword ptr [rsp+38h]
  0000000140013170: 48 89 05 11 A2 00  mov         qword ptr [14001D388h],rax
                    00
  0000000140013177: 48 8D 44 24 38     lea         rax,[rsp+38h]
  000000014001317C: 48 83 C0 08        add         rax,8
  0000000140013180: 48 89 05 A1 A1 00  mov         qword ptr [14001D328h],rax
                    00
  0000000140013187: 48 8B 05 FA A1 00  mov         rax,qword ptr [14001D388h]
                    00
  000000014001318E: 48 89 05 6B A0 00  mov         qword ptr [14001D200h],rax
                    00
  0000000140013195: 48 8B 44 24 40     mov         rax,qword ptr [rsp+40h]
  000000014001319A: 48 89 05 6F A1 00  mov         qword ptr [14001D310h],rax
                    00
  00000001400131A1: C7 05 45 A0 00 00  mov         dword ptr [14001D1F0h],0C0000409h
                    09 04 00 C0
  00000001400131AB: C7 05 3F A0 00 00  mov         dword ptr [14001D1F4h],1
                    01 00 00 00
  00000001400131B5: C7 05 49 A0 00 00  mov         dword ptr [14001D208h],1
                    01 00 00 00
  00000001400131BF: B8 08 00 00 00     mov         eax,8
  00000001400131C4: 48 6B C0 00        imul        rax,rax,0
  00000001400131C8: 48 8D 0D 41 A0 00  lea         rcx,[14001D210h]
                    00
  00000001400131CF: 48 C7 04 01 02 00  mov         qword ptr [rcx+rax],2
                    00 00
  00000001400131D7: B8 08 00 00 00     mov         eax,8
  00000001400131DC: 48 6B C0 00        imul        rax,rax,0
  00000001400131E0: 48 8B 0D 19 9E 00  mov         rcx,qword ptr [__security_cookie]
                    00
  00000001400131E7: 48 89 4C 04 20     mov         qword ptr [rsp+rax+20h],rcx
  00000001400131EC: B8 08 00 00 00     mov         eax,8
  00000001400131F1: 48 6B C0 01        imul        rax,rax,1
  00000001400131F5: 48 8B 0D 44 9E 00  mov         rcx,qword ptr [__security_cookie_complement]
                    00
  00000001400131FC: 48 89 4C 04 20     mov         qword ptr [rsp+rax+20h],rcx
  0000000140013201: 48 8D 0D 38 83 00  lea         rcx,[14001B540h]
                    00
  0000000140013208: E8 F6 DF FF FF     call        @ILT+510(__raise_securityfailure)
  000000014001320D: 90                 nop
  000000014001320E: 48 83 C4 38        add         rsp,38h
  0000000140013212: C3                 ret
  0000000140013213: CC CC CC CC CC CC CC CC CC CC CC CC CC CC CC CC  ŒŒŒŒŒŒŒŒŒŒŒŒŒŒŒŒ
  0000000140013223: CC CC CC CC CC CC CC CC CC CC CC CC CC CC CC CC  ŒŒŒŒŒŒŒŒŒŒŒŒŒŒŒŒ
  0000000140013233: CC CC CC CC CC CC CC CC CC CC CC CC CC CC CC CC  ŒŒŒŒŒŒŒŒŒŒŒŒŒŒŒŒ
  0000000140013243: CC CC CC CC CC CC CC CC CC CC CC CC CC           ŒŒŒŒŒŒŒŒŒŒŒŒŒ
__report_rangecheckfailure:
  0000000140013250: 48 83 EC 28        sub         rsp,28h
  0000000140013254: B9 08 00 00 00     mov         ecx,8
  0000000140013259: E8 92 DE FF FF     call        @ILT+235(__report_securityfailure)
  000000014001325E: 90                 nop
  000000014001325F: 48 83 C4 28        add         rsp,28h
  0000000140013263: C3                 ret
  0000000140013264: CC CC CC CC CC CC CC CC CC CC CC CC              ŒŒŒŒŒŒŒŒŒŒŒŒ
__report_securityfailure:
  0000000140013270: 89 4C 24 08        mov         dword ptr [rsp+8],ecx
  0000000140013274: 48 83 EC 28        sub         rsp,28h
  0000000140013278: B9 17 00 00 00     mov         ecx,17h
  000000014001327D: FF 15 2D DE 00 00  call        qword ptr [__imp_IsProcessorFeaturePresent]
  0000000140013283: 85 C0              test        eax,eax
  0000000140013285: 74 08              je          000000014001328F
  0000000140013287: 8B 44 24 30        mov         eax,dword ptr [rsp+30h]
  000000014001328B: 8B C8              mov         ecx,eax
  000000014001328D: CD 29              int         29h
  000000014001328F: 48 8D 0D FA 9F 00  lea         rcx,[14001D290h]
                    00
  0000000140013296: E8 05 02 00 00     call        00000001400134A0
  000000014001329B: 48 8B 44 24 28     mov         rax,qword ptr [rsp+28h]
  00000001400132A0: 48 89 05 E1 A0 00  mov         qword ptr [14001D388h],rax
                    00
  00000001400132A7: 48 8D 44 24 28     lea         rax,[rsp+28h]
  00000001400132AC: 48 83 C0 08        add         rax,8
  00000001400132B0: 48 89 05 71 A0 00  mov         qword ptr [14001D328h],rax
                    00
  00000001400132B7: 48 8B 05 CA A0 00  mov         rax,qword ptr [14001D388h]
                    00
  00000001400132BE: 48 89 05 3B 9F 00  mov         qword ptr [14001D200h],rax
                    00
  00000001400132C5: C7 05 21 9F 00 00  mov         dword ptr [14001D1F0h],0C0000409h
                    09 04 00 C0
  00000001400132CF: C7 05 1B 9F 00 00  mov         dword ptr [14001D1F4h],1
                    01 00 00 00
  00000001400132D9: C7 05 25 9F 00 00  mov         dword ptr [14001D208h],1
                    01 00 00 00
  00000001400132E3: B8 08 00 00 00     mov         eax,8
  00000001400132E8: 48 6B C0 00        imul        rax,rax,0
  00000001400132EC: 48 8D 0D 1D 9F 00  lea         rcx,[14001D210h]
                    00
  00000001400132F3: 8B 54 24 30        mov         edx,dword ptr [rsp+30h]
  00000001400132F7: 48 89 14 01        mov         qword ptr [rcx+rax],rdx
  00000001400132FB: 48 8D 0D 3E 82 00  lea         rcx,[14001B540h]
                    00
  0000000140013302: E8 FC DE FF FF     call        @ILT+510(__raise_securityfailure)
  0000000140013307: 90                 nop
  0000000140013308: 48 83 C4 28        add         rsp,28h
  000000014001330C: C3                 ret
  000000014001330D: CC CC CC CC CC CC CC CC CC CC CC CC CC CC CC CC  ŒŒŒŒŒŒŒŒŒŒŒŒŒŒŒŒ
  000000014001331D: CC CC CC CC CC CC CC CC CC CC CC CC CC CC CC CC  ŒŒŒŒŒŒŒŒŒŒŒŒŒŒŒŒ
  000000014001332D: CC CC CC CC CC CC CC CC CC CC CC CC CC CC CC CC  ŒŒŒŒŒŒŒŒŒŒŒŒŒŒŒŒ
  000000014001333D: CC CC CC                                         ŒŒŒ
__report_securityfailureEx:
  0000000140013340: 4C 89 44 24 18     mov         qword ptr [rsp+18h],r8
  0000000140013345: 89 54 24 10        mov         dword ptr [rsp+10h],edx
  0000000140013349: 89 4C 24 08        mov         dword ptr [rsp+8],ecx
  000000014001334D: 48 83 EC 38        sub         rsp,38h
  0000000140013351: B9 17 00 00 00     mov         ecx,17h
  0000000140013356: FF 15 54 DD 00 00  call        qword ptr [__imp_IsProcessorFeaturePresent]
  000000014001335C: 85 C0              test        eax,eax
  000000014001335E: 74 08              je          0000000140013368
  0000000140013360: 8B 44 24 40        mov         eax,dword ptr [rsp+40h]
  0000000140013364: 8B C8              mov         ecx,eax
  0000000140013366: CD 29              int         29h
  0000000140013368: 48 8D 0D 21 9F 00  lea         rcx,[14001D290h]
                    00
  000000014001336F: E8 2C 01 00 00     call        00000001400134A0
  0000000140013374: 48 8B 44 24 38     mov         rax,qword ptr [rsp+38h]
  0000000140013379: 48 89 05 08 A0 00  mov         qword ptr [14001D388h],rax
                    00
  0000000140013380: 48 8D 44 24 38     lea         rax,[rsp+38h]
  0000000140013385: 48 83 C0 08        add         rax,8
  0000000140013389: 48 89 05 98 9F 00  mov         qword ptr [14001D328h],rax
                    00
  0000000140013390: 48 8B 05 F1 9F 00  mov         rax,qword ptr [14001D388h]
                    00
  0000000140013397: 48 89 05 62 9E 00  mov         qword ptr [14001D200h],rax
                    00
  000000014001339E: C7 05 48 9E 00 00  mov         dword ptr [14001D1F0h],0C0000409h
                    09 04 00 C0
  00000001400133A8: C7 05 42 9E 00 00  mov         dword ptr [14001D1F4h],1
                    01 00 00 00
  00000001400133B2: 83 7C 24 48 00     cmp         dword ptr [rsp+48h],0
  00000001400133B7: 76 10              jbe         00000001400133C9
  00000001400133B9: 48 83 7C 24 50 00  cmp         qword ptr [rsp+50h],0
  00000001400133BF: 75 08              jne         00000001400133C9
  00000001400133C1: C7 44 24 48 00 00  mov         dword ptr [rsp+48h],0
                    00 00
  00000001400133C9: 83 7C 24 48 0E     cmp         dword ptr [rsp+48h],0Eh
  00000001400133CE: 76 0A              jbe         00000001400133DA
  00000001400133D0: 8B 44 24 48        mov         eax,dword ptr [rsp+48h]
  00000001400133D4: FF C8              dec         eax
  00000001400133D6: 89 44 24 48        mov         dword ptr [rsp+48h],eax
  00000001400133DA: 8B 44 24 48        mov         eax,dword ptr [rsp+48h]
  00000001400133DE: FF C0              inc         eax
  00000001400133E0: 89 05 22 9E 00 00  mov         dword ptr [14001D208h],eax
  00000001400133E6: B8 08 00 00 00     mov         eax,8
  00000001400133EB: 48 6B C0 00        imul        rax,rax,0
  00000001400133EF: 48 8D 0D 1A 9E 00  lea         rcx,[14001D210h]
                    00
  00000001400133F6: 8B 54 24 40        mov         edx,dword ptr [rsp+40h]
  00000001400133FA: 48 89 14 01        mov         qword ptr [rcx+rax],rdx
  00000001400133FE: C7 44 24 20 00 00  mov         dword ptr [rsp+20h],0
                    00 00
  0000000140013406: EB 0A              jmp         0000000140013412
  0000000140013408: 8B 44 24 20        mov         eax,dword ptr [rsp+20h]
  000000014001340C: FF C0              inc         eax
  000000014001340E: 89 44 24 20        mov         dword ptr [rsp+20h],eax
  0000000140013412: 8B 44 24 48        mov         eax,dword ptr [rsp+48h]
  0000000140013416: 39 44 24 20        cmp         dword ptr [rsp+20h],eax
  000000014001341A: 73 22              jae         000000014001343E
  000000014001341C: 8B 44 24 20        mov         eax,dword ptr [rsp+20h]
  0000000140013420: 8B 4C 24 20        mov         ecx,dword ptr [rsp+20h]
  0000000140013424: FF C1              inc         ecx
  0000000140013426: 8B C9              mov         ecx,ecx
  0000000140013428: 48 8D 15 E1 9D 00  lea         rdx,[14001D210h]
                    00
  000000014001342F: 4C 8B 44 24 50     mov         r8,qword ptr [rsp+50h]
  0000000140013434: 49 8B 04 C0        mov         rax,qword ptr [r8+rax*8]
  0000000140013438: 48 89 04 CA        mov         qword ptr [rdx+rcx*8],rax
  000000014001343C: EB CA              jmp         0000000140013408
  000000014001343E: 48 8D 0D FB 80 00  lea         rcx,[14001B540h]
                    00
  0000000140013445: E8 B9 DD FF FF     call        @ILT+510(__raise_securityfailure)
  000000014001344A: 90                 nop
  000000014001344B: 48 83 C4 38        add         rsp,38h
  000000014001344F: C3                 ret
  0000000140013450: CC CC CC CC CC CC CC CC CC CC CC CC CC CC CC CC  ŒŒŒŒŒŒŒŒŒŒŒŒŒŒŒŒ
  0000000140013460: CC CC CC CC CC CC CC CC CC CC CC CC CC CC CC CC  ŒŒŒŒŒŒŒŒŒŒŒŒŒŒŒŒ
  0000000140013470: CC CC CC CC CC CC CC CC CC CC CC CC CC CC CC CC  ŒŒŒŒŒŒŒŒŒŒŒŒŒŒŒŒ
  0000000140013480: CC CC CC CC CC CC CC CC CC CC CC CC CC CC CC CC  ŒŒŒŒŒŒŒŒŒŒŒŒŒŒŒŒ
  0000000140013490: CC CC CC CC CC CC CC CC CC CC CC CC CC CC CC CC  ŒŒŒŒŒŒŒŒŒŒŒŒŒŒŒŒ
capture_current_context:
  00000001400134A0: 48 89 4C 24 08     mov         qword ptr [rsp+8],rcx
  00000001400134A5: 48 83 EC 78        sub         rsp,78h
  00000001400134A9: 48 8B 8C 24 80 00  mov         rcx,qword ptr [rsp+80h]
                    00 00
  00000001400134B1: FF 15 71 DB 00 00  call        qword ptr [__imp_RtlCaptureContext]
  00000001400134B7: 48 8B 84 24 80 00  mov         rax,qword ptr [rsp+80h]
                    00 00
  00000001400134BF: 48 8B 80 F8 00 00  mov         rax,qword ptr [rax+0F8h]
                    00
  00000001400134C6: 48 89 44 24 48     mov         qword ptr [rsp+48h],rax
  00000001400134CB: 45 33 C0           xor         r8d,r8d
  00000001400134CE: 48 8D 54 24 50     lea         rdx,[rsp+50h]
  00000001400134D3: 48 8B 4C 24 48     mov         rcx,qword ptr [rsp+48h]
  00000001400134D8: FF 15 52 DB 00 00  call        qword ptr [__imp_RtlLookupFunctionEntry]
  00000001400134DE: 48 89 44 24 40     mov         qword ptr [rsp+40h],rax
  00000001400134E3: 48 83 7C 24 40 00  cmp         qword ptr [rsp+40h],0
  00000001400134E9: 74 42              je          000000014001352D
  00000001400134EB: 48 C7 44 24 38 00  mov         qword ptr [rsp+38h],0
                    00 00 00
  00000001400134F4: 48 8D 44 24 58     lea         rax,[rsp+58h]
  00000001400134F9: 48 89 44 24 30     mov         qword ptr [rsp+30h],rax
  00000001400134FE: 48 8D 44 24 60     lea         rax,[rsp+60h]
  0000000140013503: 48 89 44 24 28     mov         qword ptr [rsp+28h],rax
  0000000140013508: 48 8B 84 24 80 00  mov         rax,qword ptr [rsp+80h]
                    00 00
  0000000140013510: 48 89 44 24 20     mov         qword ptr [rsp+20h],rax
  0000000140013515: 4C 8B 4C 24 40     mov         r9,qword ptr [rsp+40h]
  000000014001351A: 4C 8B 44 24 48     mov         r8,qword ptr [rsp+48h]
  000000014001351F: 48 8B 54 24 50     mov         rdx,qword ptr [rsp+50h]
  0000000140013524: 33 C9              xor         ecx,ecx
  0000000140013526: FF 15 0C DB 00 00  call        qword ptr [__imp_RtlVirtualUnwind]
  000000014001352C: 90                 nop
  000000014001352D: 48 83 C4 78        add         rsp,78h
  0000000140013531: C3                 ret
  0000000140013532: CC CC CC CC CC CC CC CC CC CC CC CC CC CC CC CC  ŒŒŒŒŒŒŒŒŒŒŒŒŒŒŒŒ
  0000000140013542: CC CC CC CC CC CC CC CC CC CC CC CC CC CC CC CC  ŒŒŒŒŒŒŒŒŒŒŒŒŒŒŒŒ
  0000000140013552: CC CC CC CC CC CC CC CC CC CC CC CC CC CC        ŒŒŒŒŒŒŒŒŒŒŒŒŒŒ
capture_previous_context:
  0000000140013560: 48 89 4C 24 08     mov         qword ptr [rsp+8],rcx
  0000000140013565: 48 83 EC 78        sub         rsp,78h
  0000000140013569: 48 8B 8C 24 80 00  mov         rcx,qword ptr [rsp+80h]
                    00 00
  0000000140013571: FF 15 B1 DA 00 00  call        qword ptr [__imp_RtlCaptureContext]
  0000000140013577: 48 8B 84 24 80 00  mov         rax,qword ptr [rsp+80h]
                    00 00
  000000014001357F: 48 8B 80 F8 00 00  mov         rax,qword ptr [rax+0F8h]
                    00
  0000000140013586: 48 89 44 24 50     mov         qword ptr [rsp+50h],rax
  000000014001358B: C7 44 24 40 00 00  mov         dword ptr [rsp+40h],0
                    00 00
  0000000140013593: EB 0A              jmp         000000014001359F
  0000000140013595: 8B 44 24 40        mov         eax,dword ptr [rsp+40h]
  0000000140013599: FF C0              inc         eax
  000000014001359B: 89 44 24 40        mov         dword ptr [rsp+40h],eax
  000000014001359F: 83 7C 24 40 02     cmp         dword ptr [rsp+40h],2
  00000001400135A4: 7D 68              jge         000000014001360E
  00000001400135A6: 45 33 C0           xor         r8d,r8d
  00000001400135A9: 48 8D 54 24 58     lea         rdx,[rsp+58h]
  00000001400135AE: 48 8B 4C 24 50     mov         rcx,qword ptr [rsp+50h]
  00000001400135B3: FF 15 77 DA 00 00  call        qword ptr [__imp_RtlLookupFunctionEntry]
  00000001400135B9: 48 89 44 24 48     mov         qword ptr [rsp+48h],rax
  00000001400135BE: 48 83 7C 24 48 00  cmp         qword ptr [rsp+48h],0
  00000001400135C4: 74 44              je          000000014001360A
  00000001400135C6: 48 C7 44 24 38 00  mov         qword ptr [rsp+38h],0
                    00 00 00
  00000001400135CF: 48 8D 44 24 60     lea         rax,[rsp+60h]
  00000001400135D4: 48 89 44 24 30     mov         qword ptr [rsp+30h],rax
  00000001400135D9: 48 8D 44 24 68     lea         rax,[rsp+68h]
  00000001400135DE: 48 89 44 24 28     mov         qword ptr [rsp+28h],rax
  00000001400135E3: 48 8B 84 24 80 00  mov         rax,qword ptr [rsp+80h]
                    00 00
  00000001400135EB: 48 89 44 24 20     mov         qword ptr [rsp+20h],rax
  00000001400135F0: 4C 8B 4C 24 48     mov         r9,qword ptr [rsp+48h]
  00000001400135F5: 4C 8B 44 24 50     mov         r8,qword ptr [rsp+50h]
  00000001400135FA: 48 8B 54 24 58     mov         rdx,qword ptr [rsp+58h]
  00000001400135FF: 33 C9              xor         ecx,ecx
  0000000140013601: FF 15 31 DA 00 00  call        qword ptr [__imp_RtlVirtualUnwind]
  0000000140013607: 90                 nop
  0000000140013608: EB 02              jmp         000000014001360C
  000000014001360A: EB 02              jmp         000000014001360E
  000000014001360C: EB 87              jmp         0000000140013595
  000000014001360E: 48 83 C4 78        add         rsp,78h
  0000000140013612: C3                 ret
  0000000140013613: CC CC CC CC CC CC CC CC CC CC CC CC CC CC CC CC  ŒŒŒŒŒŒŒŒŒŒŒŒŒŒŒŒ
  0000000140013623: CC CC CC CC CC CC CC CC CC CC CC CC CC CC CC CC  ŒŒŒŒŒŒŒŒŒŒŒŒŒŒŒŒ
  0000000140013633: CC CC CC CC CC CC CC CC CC CC CC CC CC           ŒŒŒŒŒŒŒŒŒŒŒŒŒ
find_pe_section:
  0000000140013640: 48 89 54 24 10     mov         qword ptr [rsp+10h],rdx
  0000000140013645: 48 89 4C 24 08     mov         qword ptr [rsp+8],rcx
  000000014001364A: 48 83 EC 38        sub         rsp,38h
  000000014001364E: 48 8B 44 24 40     mov         rax,qword ptr [rsp+40h]
  0000000140013653: 48 89 44 24 10     mov         qword ptr [rsp+10h],rax
  0000000140013658: 48 8B 44 24 10     mov         rax,qword ptr [rsp+10h]
  000000014001365D: 48 63 40 3C        movsxd      rax,dword ptr [rax+3Ch]
  0000000140013661: 48 8B 4C 24 10     mov         rcx,qword ptr [rsp+10h]
  0000000140013666: 48 03 C8           add         rcx,rax
  0000000140013669: 48 8B C1           mov         rax,rcx
  000000014001366C: 48 89 44 24 20     mov         qword ptr [rsp+20h],rax
  0000000140013671: 48 8B 44 24 20     mov         rax,qword ptr [rsp+20h]
  0000000140013676: 48 89 44 24 08     mov         qword ptr [rsp+8],rax
  000000014001367B: 48 8B 44 24 08     mov         rax,qword ptr [rsp+8]
  0000000140013680: 0F B7 40 14        movzx       eax,word ptr [rax+14h]
  0000000140013684: 48 8B 4C 24 08     mov         rcx,qword ptr [rsp+8]
  0000000140013689: 48 8D 44 01 18     lea         rax,[rcx+rax+18h]
  000000014001368E: 48 89 44 24 18     mov         qword ptr [rsp+18h],rax
  0000000140013693: 48 8B 44 24 08     mov         rax,qword ptr [rsp+8]
  0000000140013698: 0F B7 40 06        movzx       eax,word ptr [rax+6]
  000000014001369C: 48 6B C0 28        imul        rax,rax,28h
  00000001400136A0: 48 8B 4C 24 18     mov         rcx,qword ptr [rsp+18h]
  00000001400136A5: 48 03 C8           add         rcx,rax
  00000001400136A8: 48 8B C1           mov         rax,rcx
  00000001400136AB: 48 89 44 24 28     mov         qword ptr [rsp+28h],rax
  00000001400136B0: 48 8B 44 24 18     mov         rax,qword ptr [rsp+18h]
  00000001400136B5: 48 89 04 24        mov         qword ptr [rsp],rax
  00000001400136B9: EB 0C              jmp         00000001400136C7
  00000001400136BB: 48 8B 04 24        mov         rax,qword ptr [rsp]
  00000001400136BF: 48 83 C0 28        add         rax,28h
  00000001400136C3: 48 89 04 24        mov         qword ptr [rsp],rax
  00000001400136C7: 48 8B 44 24 28     mov         rax,qword ptr [rsp+28h]
  00000001400136CC: 48 39 04 24        cmp         qword ptr [rsp],rax
  00000001400136D0: 74 2D              je          00000001400136FF
  00000001400136D2: 48 8B 04 24        mov         rax,qword ptr [rsp]
  00000001400136D6: 8B 40 0C           mov         eax,dword ptr [rax+0Ch]
  00000001400136D9: 48 39 44 24 48     cmp         qword ptr [rsp+48h],rax
  00000001400136DE: 72 1D              jb          00000001400136FD
  00000001400136E0: 48 8B 04 24        mov         rax,qword ptr [rsp]
  00000001400136E4: 8B 40 0C           mov         eax,dword ptr [rax+0Ch]
  00000001400136E7: 48 8B 0C 24        mov         rcx,qword ptr [rsp]
  00000001400136EB: 03 41 08           add         eax,dword ptr [rcx+8]
  00000001400136EE: 8B C0              mov         eax,eax
  00000001400136F0: 48 39 44 24 48     cmp         qword ptr [rsp+48h],rax
  00000001400136F5: 73 06              jae         00000001400136FD
  00000001400136F7: 48 8B 04 24        mov         rax,qword ptr [rsp]
  00000001400136FB: EB 04              jmp         0000000140013701
  00000001400136FD: EB BC              jmp         00000001400136BB
  00000001400136FF: 33 C0              xor         eax,eax
  0000000140013701: 48 83 C4 38        add         rsp,38h
  0000000140013705: C3                 ret
  0000000140013706: CC CC CC CC CC CC CC CC CC CC CC CC CC CC CC CC  ŒŒŒŒŒŒŒŒŒŒŒŒŒŒŒŒ
  0000000140013716: CC CC CC CC CC CC CC CC CC CC CC CC CC CC CC CC  ŒŒŒŒŒŒŒŒŒŒŒŒŒŒŒŒ
  0000000140013726: CC CC CC CC CC CC CC CC CC CC CC CC CC CC CC CC  ŒŒŒŒŒŒŒŒŒŒŒŒŒŒŒŒ
  0000000140013736: CC CC CC CC CC CC CC CC CC CC                    ŒŒŒŒŒŒŒŒŒŒ
is_potentially_valid_image_base:
  0000000140013740: 48 89 4C 24 08     mov         qword ptr [rsp+8],rcx
  0000000140013745: 48 83 EC 28        sub         rsp,28h
  0000000140013749: 48 83 7C 24 30 00  cmp         qword ptr [rsp+30h],0
  000000014001374F: 75 04              jne         0000000140013755
  0000000140013751: 32 C0              xor         al,al
  0000000140013753: EB 70              jmp         00000001400137C5
  0000000140013755: 48 8B 44 24 30     mov         rax,qword ptr [rsp+30h]
  000000014001375A: 48 89 04 24        mov         qword ptr [rsp],rax
  000000014001375E: 48 8B 04 24        mov         rax,qword ptr [rsp]
  0000000140013762: 0F B7 00           movzx       eax,word ptr [rax]
  0000000140013765: 3D 4D 5A 00 00     cmp         eax,5A4Dh
  000000014001376A: 74 04              je          0000000140013770
  000000014001376C: 32 C0              xor         al,al
  000000014001376E: EB 55              jmp         00000001400137C5
  0000000140013770: 48 8B 04 24        mov         rax,qword ptr [rsp]
  0000000140013774: 48 63 40 3C        movsxd      rax,dword ptr [rax+3Ch]
  0000000140013778: 48 8B 0C 24        mov         rcx,qword ptr [rsp]
  000000014001377C: 48 03 C8           add         rcx,rax
  000000014001377F: 48 8B C1           mov         rax,rcx
  0000000140013782: 48 89 44 24 10     mov         qword ptr [rsp+10h],rax
  0000000140013787: 48 8B 44 24 10     mov         rax,qword ptr [rsp+10h]
  000000014001378C: 48 89 44 24 08     mov         qword ptr [rsp+8],rax
  0000000140013791: 48 8B 44 24 08     mov         rax,qword ptr [rsp+8]
  0000000140013796: 81 38 50 45 00 00  cmp         dword ptr [rax],4550h
  000000014001379C: 74 04              je          00000001400137A2
  000000014001379E: 32 C0              xor         al,al
  00000001400137A0: EB 23              jmp         00000001400137C5
  00000001400137A2: 48 8B 44 24 08     mov         rax,qword ptr [rsp+8]
  00000001400137A7: 48 83 C0 18        add         rax,18h
  00000001400137AB: 48 89 44 24 18     mov         qword ptr [rsp+18h],rax
  00000001400137B0: 48 8B 44 24 18     mov         rax,qword ptr [rsp+18h]
  00000001400137B5: 0F B7 00           movzx       eax,word ptr [rax]
  00000001400137B8: 3D 0B 02 00 00     cmp         eax,20Bh
  00000001400137BD: 74 04              je          00000001400137C3
  00000001400137BF: 32 C0              xor         al,al
  00000001400137C1: EB 02              jmp         00000001400137C5
  00000001400137C3: B0 01              mov         al,1
  00000001400137C5: 48 83 C4 28        add         rsp,28h
  00000001400137C9: C3                 ret
  00000001400137CA: CC CC CC CC CC CC CC CC CC CC CC CC CC CC CC CC  ŒŒŒŒŒŒŒŒŒŒŒŒŒŒŒŒ
  00000001400137DA: CC CC CC CC CC CC CC CC CC CC CC CC CC CC CC CC  ŒŒŒŒŒŒŒŒŒŒŒŒŒŒŒŒ
  00000001400137EA: CC CC CC CC CC CC                                ŒŒŒŒŒŒ
NtCurrentTeb:
  00000001400137F0: 65 48 8B 04 25 30  mov         rax,qword ptr gs:[30h]
                    00 00 00
  00000001400137F9: C3                 ret
  00000001400137FA: CC CC CC CC CC CC                                ŒŒŒŒŒŒ
__scrt_acquire_startup_lock:
  0000000140013800: 48 83 EC 48        sub         rsp,48h
  0000000140013804: E8 4B D9 FF FF     call        @ILT+335(__scrt_is_ucrt_dll_in_use)
  0000000140013809: 85 C0              test        eax,eax
  000000014001380B: 75 04              jne         0000000140013811
  000000014001380D: 32 C0              xor         al,al
  000000014001380F: EB 4C              jmp         000000014001385D
  0000000140013811: E8 23 DB FF FF     call        @ILT+820(NtCurrentTeb)
  0000000140013816: 48 8B 40 08        mov         rax,qword ptr [rax+8]
  000000014001381A: 48 89 44 24 28     mov         qword ptr [rsp+28h],rax
  000000014001381F: 48 8B 44 24 28     mov         rax,qword ptr [rsp+28h]
  0000000140013824: 48 89 44 24 30     mov         qword ptr [rsp+30h],rax
  0000000140013829: 48 8D 0D 50 A0 00  lea         rcx,[__scrt_native_startup_lock]
                    00
  0000000140013830: 33 C0              xor         eax,eax
  0000000140013832: 48 8B 54 24 30     mov         rdx,qword ptr [rsp+30h]
  0000000140013837: F0 48 0F B1 11     lock cmpxchg qword ptr [rcx],rdx
  000000014001383C: 48 89 44 24 20     mov         qword ptr [rsp+20h],rax
  0000000140013841: 48 83 7C 24 20 00  cmp         qword ptr [rsp+20h],0
  0000000140013847: 74 12              je          000000014001385B
  0000000140013849: 48 8B 44 24 20     mov         rax,qword ptr [rsp+20h]
  000000014001384E: 48 39 44 24 28     cmp         qword ptr [rsp+28h],rax
  0000000140013853: 75 04              jne         0000000140013859
  0000000140013855: B0 01              mov         al,1
  0000000140013857: EB 04              jmp         000000014001385D
  0000000140013859: EB C4              jmp         000000014001381F
  000000014001385B: 32 C0              xor         al,al
  000000014001385D: 48 83 C4 48        add         rsp,48h
  0000000140013861: C3                 ret
  0000000140013862: CC CC CC CC CC CC CC CC CC CC CC CC CC CC CC CC  ŒŒŒŒŒŒŒŒŒŒŒŒŒŒŒŒ
  0000000140013872: CC CC CC CC CC CC CC CC CC CC CC CC CC CC        ŒŒŒŒŒŒŒŒŒŒŒŒŒŒ
__scrt_dllmain_after_initialize_c:
  0000000140013880: 48 83 EC 28        sub         rsp,28h
  0000000140013884: E8 CB D8 FF FF     call        @ILT+335(__scrt_is_ucrt_dll_in_use)
  0000000140013889: 85 C0              test        eax,eax
  000000014001388B: 74 08              je          0000000140013895
  000000014001388D: E8 93 DA FF FF     call        @ILT+800(__isa_available_init)
  0000000140013892: 90                 nop
  0000000140013893: EB 13              jmp         00000001400138A8
  0000000140013895: E8 91 D9 FF FF     call        @ILT+550(?configure_argv@__scrt_narrow_argv_policy@@SAHXZ)
  000000014001389A: 85 C0              test        eax,eax
  000000014001389C: 74 04              je          00000001400138A2
  000000014001389E: 32 C0              xor         al,al
  00000001400138A0: EB 08              jmp         00000001400138AA
  00000001400138A2: E8 9E D8 FF FF     call        @ILT+320(?initialize_environment@__scrt_narrow_environment_policy@@SAHXZ)
  00000001400138A7: 90                 nop
  00000001400138A8: B0 01              mov         al,1
  00000001400138AA: 48 83 C4 28        add         rsp,28h
  00000001400138AE: C3                 ret
  00000001400138AF: CC CC CC CC CC CC CC CC CC CC CC CC CC CC CC CC  ŒŒŒŒŒŒŒŒŒŒŒŒŒŒŒŒ
  00000001400138BF: CC                                               Œ
__scrt_dllmain_before_initialize_c:
  00000001400138C0: 48 83 EC 28        sub         rsp,28h
  00000001400138C4: 33 C9              xor         ecx,ecx
  00000001400138C6: E8 20 D8 FF FF     call        @ILT+230(__scrt_initialize_onexit_tables)
  00000001400138CB: 0F B6 C0           movzx       eax,al
  00000001400138CE: 85 C0              test        eax,eax
  00000001400138D0: 75 04              jne         00000001400138D6
  00000001400138D2: 32 C0              xor         al,al
  00000001400138D4: EB 02              jmp         00000001400138D8
  00000001400138D6: B0 01              mov         al,1
  00000001400138D8: 48 83 C4 28        add         rsp,28h
  00000001400138DC: C3                 ret
  00000001400138DD: CC CC CC CC CC CC CC CC CC CC CC CC CC CC CC CC  ŒŒŒŒŒŒŒŒŒŒŒŒŒŒŒŒ
  00000001400138ED: CC CC CC                                         ŒŒŒ
__scrt_dllmain_crt_thread_attach:
  00000001400138F0: 48 83 EC 28        sub         rsp,28h
  00000001400138F4: E8 E8 D7 FF FF     call        @ILT+220(__acrt_thread_attach)
  00000001400138F9: 0F B6 C0           movzx       eax,al
  00000001400138FC: 85 C0              test        eax,eax
  00000001400138FE: 75 04              jne         0000000140013904
  0000000140013900: 32 C0              xor         al,al
  0000000140013902: EB 17              jmp         000000014001391B
  0000000140013904: E8 96 D8 FF FF     call        @ILT+410(__acrt_thread_attach)
  0000000140013909: 0F B6 C0           movzx       eax,al
  000000014001390C: 85 C0              test        eax,eax
  000000014001390E: 75 09              jne         0000000140013919
  0000000140013910: E8 58 D8 FF FF     call        @ILT+360(__acrt_thread_detach)
  0000000140013915: 32 C0              xor         al,al
  0000000140013917: EB 02              jmp         000000014001391B
  0000000140013919: B0 01              mov         al,1
  000000014001391B: 48 83 C4 28        add         rsp,28h
  000000014001391F: C3                 ret
  0000000140013920: CC CC CC CC CC CC CC CC CC CC CC CC CC CC CC CC  ŒŒŒŒŒŒŒŒŒŒŒŒŒŒŒŒ
__scrt_dllmain_crt_thread_detach:
  0000000140013930: 48 83 EC 28        sub         rsp,28h
  0000000140013934: E8 1A D9 FF FF     call        @ILT+590(__acrt_thread_detach)
  0000000140013939: E8 2F D8 FF FF     call        @ILT+360(__acrt_thread_detach)
  000000014001393E: B0 01              mov         al,1
  0000000140013940: 48 83 C4 28        add         rsp,28h
  0000000140013944: C3                 ret
  0000000140013945: CC CC CC CC CC CC CC CC CC CC CC                 ŒŒŒŒŒŒŒŒŒŒŒ
__scrt_dllmain_exception_filter:
  0000000140013950: 4C 89 4C 24 20     mov         qword ptr [rsp+20h],r9
  0000000140013955: 4C 89 44 24 18     mov         qword ptr [rsp+18h],r8
  000000014001395A: 89 54 24 10        mov         dword ptr [rsp+10h],edx
  000000014001395E: 48 89 4C 24 08     mov         qword ptr [rsp+8],rcx
  0000000140013963: 48 83 EC 38        sub         rsp,38h
  0000000140013967: E8 E8 D7 FF FF     call        @ILT+335(__scrt_is_ucrt_dll_in_use)
  000000014001396C: 85 C0              test        eax,eax
  000000014001396E: 75 33              jne         00000001400139A3
  0000000140013970: 83 7C 24 48 01     cmp         dword ptr [rsp+48h],1
  0000000140013975: 75 2C              jne         00000001400139A3
  0000000140013977: 48 8B 44 24 58     mov         rax,qword ptr [rsp+58h]
  000000014001397C: 48 89 44 24 20     mov         qword ptr [rsp+20h],rax
  0000000140013981: 48 8B 44 24 20     mov         rax,qword ptr [rsp+20h]
  0000000140013986: 48 89 44 24 28     mov         qword ptr [rsp+28h],rax
  000000014001398B: 4C 8B 44 24 50     mov         r8,qword ptr [rsp+50h]
  0000000140013990: 33 D2              xor         edx,edx
  0000000140013992: 48 8B 4C 24 40     mov         rcx,qword ptr [rsp+40h]
  0000000140013997: 48 8B 44 24 28     mov         rax,qword ptr [rsp+28h]
  000000014001399C: FF 15 7E F6 00 00  call        qword ptr [__guard_dispatch_icall_fptr]
  00000001400139A2: 90                 nop
  00000001400139A3: 48 8B 54 24 68     mov         rdx,qword ptr [rsp+68h]
  00000001400139A8: 8B 4C 24 60        mov         ecx,dword ptr [rsp+60h]
  00000001400139AC: E8 2F D8 FF FF     call        @ILT+475(_seh_filter_dll)
  00000001400139B1: 48 83 C4 38        add         rsp,38h
  00000001400139B5: C3                 ret
  00000001400139B6: CC CC CC CC CC CC CC CC CC CC CC CC CC CC CC CC  ŒŒŒŒŒŒŒŒŒŒŒŒŒŒŒŒ
  00000001400139C6: CC CC CC CC CC CC CC CC CC CC                    ŒŒŒŒŒŒŒŒŒŒ
__scrt_dllmain_uninitialize_c:
  00000001400139D0: 48 83 EC 28        sub         rsp,28h
  00000001400139D4: E8 7B D7 FF FF     call        @ILT+335(__scrt_is_ucrt_dll_in_use)
  00000001400139D9: 85 C0              test        eax,eax
  00000001400139DB: 74 0F              je          00000001400139EC
  00000001400139DD: 48 8D 0D AC 9E 00  lea         rcx,[14001D890h]
                    00
  00000001400139E4: E8 6F D8 FF FF     call        @ILT+595(_execute_onexit_table)
  00000001400139E9: 90                 nop
  00000001400139EA: EB 0F              jmp         00000001400139FB
  00000001400139EC: E8 96 D6 FF FF     call        @ILT+130(__scrt_stub_for_is_c_termination_complete)
  00000001400139F1: 85 C0              test        eax,eax
  00000001400139F3: 75 06              jne         00000001400139FB
  00000001400139F5: E8 7B D9 FF FF     call        @ILT+880(_cexit)
  00000001400139FA: 90                 nop
  00000001400139FB: 48 83 C4 28        add         rsp,28h
  00000001400139FF: C3                 ret
  0000000140013A00: CC CC CC CC CC CC CC CC CC CC CC CC CC CC CC CC  ŒŒŒŒŒŒŒŒŒŒŒŒŒŒŒŒ
__scrt_dllmain_uninitialize_critical:
  0000000140013A10: 48 83 EC 28        sub         rsp,28h
  0000000140013A14: 33 C9              xor         ecx,ecx
  0000000140013A16: E8 70 D7 FF FF     call        @ILT+390(__acrt_uninitialize_critical)
  0000000140013A1B: E8 74 D8 FF FF     call        @ILT+655(__acrt_uninitialize_critical)
  0000000140013A20: 90                 nop
  0000000140013A21: 48 83 C4 28        add         rsp,28h
  0000000140013A25: C3                 ret
  0000000140013A26: CC CC CC CC CC CC CC CC CC CC                    ŒŒŒŒŒŒŒŒŒŒ
__scrt_initialize_crt:
  0000000140013A30: 89 4C 24 08        mov         dword ptr [rsp+8],ecx
  0000000140013A34: 48 83 EC 28        sub         rsp,28h
  0000000140013A38: 83 7C 24 30 00     cmp         dword ptr [rsp+30h],0
  0000000140013A3D: 75 07              jne         0000000140013A46
  0000000140013A3F: C6 05 42 9E 00 00  mov         byte ptr [14001D888h],1
                    01
  0000000140013A46: E8 DA D8 FF FF     call        @ILT+800(__isa_available_init)
  0000000140013A4B: 90                 nop
  0000000140013A4C: E8 31 D6 FF FF     call        @ILT+125(__acrt_initialize)
  0000000140013A51: 0F B6 C0           movzx       eax,al
  0000000140013A54: 85 C0              test        eax,eax
  0000000140013A56: 75 04              jne         0000000140013A5C
  0000000140013A58: 32 C0              xor         al,al
  0000000140013A5A: EB 19              jmp         0000000140013A75
  0000000140013A5C: E8 83 D8 FF FF     call        @ILT+735(__acrt_initialize)
  0000000140013A61: 0F B6 C0           movzx       eax,al
  0000000140013A64: 85 C0              test        eax,eax
  0000000140013A66: 75 0B              jne         0000000140013A73
  0000000140013A68: 33 C9              xor         ecx,ecx
  0000000140013A6A: E8 4A D6 FF FF     call        @ILT+180(__acrt_uninitialize)
  0000000140013A6F: 32 C0              xor         al,al
  0000000140013A71: EB 02              jmp         0000000140013A75
  0000000140013A73: B0 01              mov         al,1
  0000000140013A75: 48 83 C4 28        add         rsp,28h
  0000000140013A79: C3                 ret
  0000000140013A7A: CC CC CC CC CC CC CC CC CC CC CC CC CC CC CC CC  ŒŒŒŒŒŒŒŒŒŒŒŒŒŒŒŒ
  0000000140013A8A: CC CC CC CC CC CC                                ŒŒŒŒŒŒ
__scrt_initialize_onexit_tables:
  0000000140013A90: 89 4C 24 08        mov         dword ptr [rsp+8],ecx
  0000000140013A94: 56                 push        rsi
  0000000140013A95: 57                 push        rdi
  0000000140013A96: 48 83 EC 68        sub         rsp,68h
  0000000140013A9A: 0F B6 05 E8 9D 00  movzx       eax,byte ptr [14001D889h]
                    00
  0000000140013AA1: 85 C0              test        eax,eax
  0000000140013AA3: 74 07              je          0000000140013AAC
  0000000140013AA5: B0 01              mov         al,1
  0000000140013AA7: E9 E2 00 00 00     jmp         0000000140013B8E
  0000000140013AAC: 83 BC 24 80 00 00  cmp         dword ptr [rsp+80h],0
                    00 00
  0000000140013AB4: 74 15              je          0000000140013ACB
  0000000140013AB6: 83 BC 24 80 00 00  cmp         dword ptr [rsp+80h],1
                    00 01
  0000000140013ABE: 74 0B              je          0000000140013ACB
  0000000140013AC0: B9 05 00 00 00     mov         ecx,5
  0000000140013AC5: E8 60 D8 FF FF     call        @ILT+805(__scrt_fastfail)
  0000000140013ACA: 90                 nop
  0000000140013ACB: E8 84 D6 FF FF     call        @ILT+335(__scrt_is_ucrt_dll_in_use)
  0000000140013AD0: 85 C0              test        eax,eax
  0000000140013AD2: 74 3A              je          0000000140013B0E
  0000000140013AD4: 83 BC 24 80 00 00  cmp         dword ptr [rsp+80h],0
                    00 00
  0000000140013ADC: 75 30              jne         0000000140013B0E
  0000000140013ADE: 48 8D 0D AB 9D 00  lea         rcx,[14001D890h]
                    00
  0000000140013AE5: E8 DB D8 FF FF     call        @ILT+960(_initialize_onexit_table)
  0000000140013AEA: 85 C0              test        eax,eax
  0000000140013AEC: 74 07              je          0000000140013AF5
  0000000140013AEE: 32 C0              xor         al,al
  0000000140013AF0: E9 99 00 00 00     jmp         0000000140013B8E
  0000000140013AF5: 48 8D 0D AC 9D 00  lea         rcx,[14001D8A8h]
                    00
  0000000140013AFC: E8 C4 D8 FF FF     call        @ILT+960(_initialize_onexit_table)
  0000000140013B01: 85 C0              test        eax,eax
  0000000140013B03: 74 07              je          0000000140013B0C
  0000000140013B05: 32 C0              xor         al,al
  0000000140013B07: E9 82 00 00 00     jmp         0000000140013B8E
  0000000140013B0C: EB 77              jmp         0000000140013B85
  0000000140013B0E: 48 C7 44 24 20 FF  mov         qword ptr [rsp+20h],0FFFFFFFFFFFFFFFFh
                    FF FF FF
  0000000140013B17: 48 8B 44 24 20     mov         rax,qword ptr [rsp+20h]
  0000000140013B1C: 48 89 44 24 28     mov         qword ptr [rsp+28h],rax
  0000000140013B21: 48 8B 44 24 20     mov         rax,qword ptr [rsp+20h]
  0000000140013B26: 48 89 44 24 30     mov         qword ptr [rsp+30h],rax
  0000000140013B2B: 48 8B 44 24 20     mov         rax,qword ptr [rsp+20h]
  0000000140013B30: 48 89 44 24 38     mov         qword ptr [rsp+38h],rax
  0000000140013B35: 48 8D 05 54 9D 00  lea         rax,[14001D890h]
                    00
  0000000140013B3C: 48 8D 4C 24 28     lea         rcx,[rsp+28h]
  0000000140013B41: 48 8B F8           mov         rdi,rax
  0000000140013B44: 48 8B F1           mov         rsi,rcx
  0000000140013B47: B9 18 00 00 00     mov         ecx,18h
  0000000140013B4C: F3 A4              rep movs    byte ptr [rdi],byte ptr [rsi]
  0000000140013B4E: 48 8B 44 24 20     mov         rax,qword ptr [rsp+20h]
  0000000140013B53: 48 89 44 24 40     mov         qword ptr [rsp+40h],rax
  0000000140013B58: 48 8B 44 24 20     mov         rax,qword ptr [rsp+20h]
  0000000140013B5D: 48 89 44 24 48     mov         qword ptr [rsp+48h],rax
  0000000140013B62: 48 8B 44 24 20     mov         rax,qword ptr [rsp+20h]
  0000000140013B67: 48 89 44 24 50     mov         qword ptr [rsp+50h],rax
  0000000140013B6C: 48 8D 05 35 9D 00  lea         rax,[14001D8A8h]
                    00
  0000000140013B73: 48 8D 4C 24 40     lea         rcx,[rsp+40h]
  0000000140013B78: 48 8B F8           mov         rdi,rax
  0000000140013B7B: 48 8B F1           mov         rsi,rcx
  0000000140013B7E: B9 18 00 00 00     mov         ecx,18h
  0000000140013B83: F3 A4              rep movs    byte ptr [rdi],byte ptr [rsi]
  0000000140013B85: C6 05 FD 9C 00 00  mov         byte ptr [14001D889h],1
                    01
  0000000140013B8C: B0 01              mov         al,1
  0000000140013B8E: 48 83 C4 68        add         rsp,68h
  0000000140013B92: 5F                 pop         rdi
  0000000140013B93: 5E                 pop         rsi
  0000000140013B94: C3                 ret
  0000000140013B95: CC CC CC CC CC CC CC CC CC CC CC CC CC CC CC CC  ŒŒŒŒŒŒŒŒŒŒŒŒŒŒŒŒ
  0000000140013BA5: CC CC CC CC CC CC CC CC CC CC CC CC CC CC CC CC  ŒŒŒŒŒŒŒŒŒŒŒŒŒŒŒŒ
  0000000140013BB5: CC CC CC CC CC CC CC CC CC CC CC CC CC CC CC CC  ŒŒŒŒŒŒŒŒŒŒŒŒŒŒŒŒ
  0000000140013BC5: CC CC CC CC CC CC CC CC CC CC CC CC CC CC CC CC  ŒŒŒŒŒŒŒŒŒŒŒŒŒŒŒŒ
  0000000140013BD5: CC CC CC CC CC CC CC CC CC CC CC                 ŒŒŒŒŒŒŒŒŒŒŒ
__scrt_is_nonwritable_in_current_image:
  0000000140013BE0: 48 89 4C 24 08     mov         qword ptr [rsp+8],rcx
  0000000140013BE5: 48 83 EC 58        sub         rsp,58h
  0000000140013BE9: 48 8B 44 24 60     mov         rax,qword ptr [rsp+60h]
  0000000140013BEE: 48 89 44 24 38     mov         qword ptr [rsp+38h],rax
  0000000140013BF3: 48 8D 05 06 C4 FE  lea         rax,[140000000h]
                    FF
  0000000140013BFA: 48 89 44 24 28     mov         qword ptr [rsp+28h],rax
  0000000140013BFF: 48 8B 4C 24 28     mov         rcx,qword ptr [rsp+28h]
  0000000140013C04: E8 37 FB FF FF     call        0000000140013740
  0000000140013C09: 0F B6 C0           movzx       eax,al
  0000000140013C0C: 85 C0              test        eax,eax
  0000000140013C0E: 75 04              jne         0000000140013C14
  0000000140013C10: 32 C0              xor         al,al
  0000000140013C12: EB 52              jmp         0000000140013C66
  0000000140013C14: 48 8B 44 24 28     mov         rax,qword ptr [rsp+28h]
  0000000140013C19: 48 8B 4C 24 38     mov         rcx,qword ptr [rsp+38h]
  0000000140013C1E: 48 2B C8           sub         rcx,rax
  0000000140013C21: 48 8B C1           mov         rax,rcx
  0000000140013C24: 48 89 44 24 40     mov         qword ptr [rsp+40h],rax
  0000000140013C29: 48 8B 54 24 40     mov         rdx,qword ptr [rsp+40h]
  0000000140013C2E: 48 8B 4C 24 28     mov         rcx,qword ptr [rsp+28h]
  0000000140013C33: E8 08 FA FF FF     call        0000000140013640
  0000000140013C38: 48 89 44 24 30     mov         qword ptr [rsp+30h],rax
  0000000140013C3D: 48 83 7C 24 30 00  cmp         qword ptr [rsp+30h],0
  0000000140013C43: 75 04              jne         0000000140013C49
  0000000140013C45: 32 C0              xor         al,al
  0000000140013C47: EB 1D              jmp         0000000140013C66
  0000000140013C49: 48 8B 44 24 30     mov         rax,qword ptr [rsp+30h]
  0000000140013C4E: 8B 40 24           mov         eax,dword ptr [rax+24h]
  0000000140013C51: 25 00 00 00 80     and         eax,80000000h
  0000000140013C56: 85 C0              test        eax,eax
  0000000140013C58: 74 04              je          0000000140013C5E
  0000000140013C5A: 32 C0              xor         al,al
  0000000140013C5C: EB 08              jmp         0000000140013C66
  0000000140013C5E: B0 01              mov         al,1
  0000000140013C60: EB 04              jmp         0000000140013C66
  0000000140013C62: 32 C0              xor         al,al
  0000000140013C64: EB 00              jmp         0000000140013C66
  0000000140013C66: 48 83 C4 58        add         rsp,58h
  0000000140013C6A: C3                 ret
  0000000140013C6B: CC CC CC CC CC CC CC CC CC CC CC CC CC CC CC CC  ŒŒŒŒŒŒŒŒŒŒŒŒŒŒŒŒ
  0000000140013C7B: CC CC CC CC CC CC CC CC CC CC CC CC CC CC CC CC  ŒŒŒŒŒŒŒŒŒŒŒŒŒŒŒŒ
  0000000140013C8B: CC CC CC CC CC                                   ŒŒŒŒŒ
__scrt_release_startup_lock:
  0000000140013C90: 88 4C 24 08        mov         byte ptr [rsp+8],cl
  0000000140013C94: 48 83 EC 28        sub         rsp,28h
  0000000140013C98: E8 B7 D4 FF FF     call        @ILT+335(__scrt_is_ucrt_dll_in_use)
  0000000140013C9D: 85 C0              test        eax,eax
  0000000140013C9F: 75 02              jne         0000000140013CA3
  0000000140013CA1: EB 17              jmp         0000000140013CBA
  0000000140013CA3: 0F B6 44 24 30     movzx       eax,byte ptr [rsp+30h]
  0000000140013CA8: 85 C0              test        eax,eax
  0000000140013CAA: 74 02              je          0000000140013CAE
  0000000140013CAC: EB 0C              jmp         0000000140013CBA
  0000000140013CAE: 33 C0              xor         eax,eax
  0000000140013CB0: 48 8D 0D C9 9B 00  lea         rcx,[__scrt_native_startup_lock]
                    00
  0000000140013CB7: 48 87 01           xchg        rax,qword ptr [rcx]
  0000000140013CBA: 48 83 C4 28        add         rsp,28h
  0000000140013CBE: C3                 ret
  0000000140013CBF: CC CC CC CC CC CC CC CC CC CC CC CC CC CC CC CC  ŒŒŒŒŒŒŒŒŒŒŒŒŒŒŒŒ
  0000000140013CCF: CC                                               Œ
__scrt_uninitialize_crt:
  0000000140013CD0: 88 54 24 10        mov         byte ptr [rsp+10h],dl
  0000000140013CD4: 88 4C 24 08        mov         byte ptr [rsp+8],cl
  0000000140013CD8: 48 83 EC 28        sub         rsp,28h
  0000000140013CDC: 0F B6 05 A5 9B 00  movzx       eax,byte ptr [14001D888h]
                    00
  0000000140013CE3: 85 C0              test        eax,eax
  0000000140013CE5: 74 0D              je          0000000140013CF4
  0000000140013CE7: 0F B6 44 24 38     movzx       eax,byte ptr [rsp+38h]
  0000000140013CEC: 85 C0              test        eax,eax
  0000000140013CEE: 74 04              je          0000000140013CF4
  0000000140013CF0: B0 01              mov         al,1
  0000000140013CF2: EB 16              jmp         0000000140013D0A
  0000000140013CF4: 0F B6 4C 24 30     movzx       ecx,byte ptr [rsp+30h]
  0000000140013CF9: E8 5F D5 FF FF     call        @ILT+600(__acrt_uninitialize)
  0000000140013CFE: 0F B6 4C 24 30     movzx       ecx,byte ptr [rsp+30h]
  0000000140013D03: E8 B1 D3 FF FF     call        @ILT+180(__acrt_uninitialize)
  0000000140013D08: B0 01              mov         al,1
  0000000140013D0A: 48 83 C4 28        add         rsp,28h
  0000000140013D0E: C3                 ret
  0000000140013D0F: CC CC CC CC CC CC CC CC CC CC CC CC CC CC CC CC  ŒŒŒŒŒŒŒŒŒŒŒŒŒŒŒŒ
  0000000140013D1F: CC                                               Œ
_onexit:
  0000000140013D20: 48 89 4C 24 08     mov         qword ptr [rsp+8],rcx
  0000000140013D25: 48 83 EC 48        sub         rsp,48h
  0000000140013D29: 48 8B 05 60 9B 00  mov         rax,qword ptr [14001D890h]
                    00
  0000000140013D30: 48 89 44 24 30     mov         qword ptr [rsp+30h],rax
  0000000140013D35: 48 83 7C 24 30 FF  cmp         qword ptr [rsp+30h],0FFFFFFFFFFFFFFFFh
  0000000140013D3B: 75 2C              jne         0000000140013D69
  0000000140013D3D: 48 8B 4C 24 50     mov         rcx,qword ptr [rsp+50h]
  0000000140013D42: E8 E5 D3 FF FF     call        @ILT+295(_crt_atexit)
  0000000140013D47: 85 C0              test        eax,eax
  0000000140013D49: 75 0C              jne         0000000140013D57
  0000000140013D4B: 48 8B 44 24 50     mov         rax,qword ptr [rsp+50h]
  0000000140013D50: 48 89 44 24 20     mov         qword ptr [rsp+20h],rax
  0000000140013D55: EB 09              jmp         0000000140013D60
  0000000140013D57: 48 C7 44 24 20 00  mov         qword ptr [rsp+20h],0
                    00 00 00
  0000000140013D60: 48 8B 44 24 20     mov         rax,qword ptr [rsp+20h]
  0000000140013D65: EB 31              jmp         0000000140013D98
  0000000140013D67: EB 2F              jmp         0000000140013D98
  0000000140013D69: 48 8B 54 24 50     mov         rdx,qword ptr [rsp+50h]
  0000000140013D6E: 48 8D 0D 1B 9B 00  lea         rcx,[14001D890h]
                    00
  0000000140013D75: E8 D4 D4 FF FF     call        @ILT+585(_register_onexit_function)
  0000000140013D7A: 85 C0              test        eax,eax
  0000000140013D7C: 75 0C              jne         0000000140013D8A
  0000000140013D7E: 48 8B 44 24 50     mov         rax,qword ptr [rsp+50h]
  0000000140013D83: 48 89 44 24 28     mov         qword ptr [rsp+28h],rax
  0000000140013D88: EB 09              jmp         0000000140013D93
  0000000140013D8A: 48 C7 44 24 28 00  mov         qword ptr [rsp+28h],0
                    00 00 00
  0000000140013D93: 48 8B 44 24 28     mov         rax,qword ptr [rsp+28h]
  0000000140013D98: 48 83 C4 48        add         rsp,48h
  0000000140013D9C: C3                 ret
  0000000140013D9D: CC CC CC CC CC CC CC CC CC CC CC CC CC CC CC CC  ŒŒŒŒŒŒŒŒŒŒŒŒŒŒŒŒ
  0000000140013DAD: CC CC CC CC CC CC CC CC CC CC CC CC CC CC CC CC  ŒŒŒŒŒŒŒŒŒŒŒŒŒŒŒŒ
  0000000140013DBD: CC CC CC                                         ŒŒŒ
at_quick_exit:
  0000000140013DC0: 48 89 4C 24 08     mov         qword ptr [rsp+8],rcx
  0000000140013DC5: 48 83 EC 38        sub         rsp,38h
  0000000140013DC9: 48 8B 05 D8 9A 00  mov         rax,qword ptr [14001D8A8h]
                    00
  0000000140013DD0: 48 89 44 24 20     mov         qword ptr [rsp+20h],rax
  0000000140013DD5: 48 83 7C 24 20 FF  cmp         qword ptr [rsp+20h],0FFFFFFFFFFFFFFFFh
  0000000140013DDB: 75 0E              jne         0000000140013DEB
  0000000140013DDD: 48 8B 4C 24 40     mov         rcx,qword ptr [rsp+40h]
  0000000140013DE2: E8 E0 D3 FF FF     call        @ILT+450(_crt_at_quick_exit)
  0000000140013DE7: EB 1D              jmp         0000000140013E06
  0000000140013DE9: EB 1B              jmp         0000000140013E06
  0000000140013DEB: 48 8B 44 24 40     mov         rax,qword ptr [rsp+40h]
  0000000140013DF0: 48 89 44 24 28     mov         qword ptr [rsp+28h],rax
  0000000140013DF5: 48 8B 54 24 28     mov         rdx,qword ptr [rsp+28h]
  0000000140013DFA: 48 8D 0D A7 9A 00  lea         rcx,[14001D8A8h]
                    00
  0000000140013E01: E8 48 D4 FF FF     call        @ILT+585(_register_onexit_function)
  0000000140013E06: 48 83 C4 38        add         rsp,38h
  0000000140013E0A: C3                 ret
  0000000140013E0B: CC CC CC CC CC CC CC CC CC CC CC CC CC CC CC CC  ŒŒŒŒŒŒŒŒŒŒŒŒŒŒŒŒ
  0000000140013E1B: CC CC CC CC CC                                   ŒŒŒŒŒ
atexit:
  0000000140013E20: 48 89 4C 24 08     mov         qword ptr [rsp+8],rcx
  0000000140013E25: 48 83 EC 38        sub         rsp,38h
  0000000140013E29: 48 8B 4C 24 40     mov         rcx,qword ptr [rsp+40h]
  0000000140013E2E: E8 77 D2 FF FF     call        @ILT+165(_onexit)
  0000000140013E33: 48 85 C0           test        rax,rax
  0000000140013E36: 74 0A              je          0000000140013E42
  0000000140013E38: C7 44 24 20 00 00  mov         dword ptr [rsp+20h],0
                    00 00
  0000000140013E40: EB 08              jmp         0000000140013E4A
  0000000140013E42: C7 44 24 20 FF FF  mov         dword ptr [rsp+20h],0FFFFFFFFh
                    FF FF
  0000000140013E4A: 8B 44 24 20        mov         eax,dword ptr [rsp+20h]
  0000000140013E4E: 48 83 C4 38        add         rsp,38h
  0000000140013E52: C3                 ret
  0000000140013E53: CC CC CC CC CC CC CC CC CC CC CC CC CC           ŒŒŒŒŒŒŒŒŒŒŒŒŒ
__get_entropy:
  0000000140013E60: 40 57              push        rdi
  0000000140013E62: 48 83 EC 40        sub         rsp,40h
  0000000140013E66: 48 8D 44 24 28     lea         rax,[rsp+28h]
  0000000140013E6B: 48 8B F8           mov         rdi,rax
  0000000140013E6E: 33 C0              xor         eax,eax
  0000000140013E70: B9 08 00 00 00     mov         ecx,8
  0000000140013E75: F3 AA              rep stos    byte ptr [rdi]
  0000000140013E77: 48 8D 4C 24 28     lea         rcx,[rsp+28h]
  0000000140013E7C: FF 15 16 D2 00 00  call        qword ptr [__imp_GetSystemTimeAsFileTime]
  0000000140013E82: 48 8B 44 24 28     mov         rax,qword ptr [rsp+28h]
  0000000140013E87: 48 89 44 24 20     mov         qword ptr [rsp+20h],rax
  0000000140013E8C: FF 15 F6 D1 00 00  call        qword ptr [__imp_GetCurrentThreadId]
  0000000140013E92: 8B C0              mov         eax,eax
  0000000140013E94: 48 8B 4C 24 20     mov         rcx,qword ptr [rsp+20h]
  0000000140013E99: 48 33 C8           xor         rcx,rax
  0000000140013E9C: 48 8B C1           mov         rax,rcx
  0000000140013E9F: 48 89 44 24 20     mov         qword ptr [rsp+20h],rax
  0000000140013EA4: FF 15 F6 D1 00 00  call        qword ptr [__imp_GetCurrentProcessId]
  0000000140013EAA: 8B C0              mov         eax,eax
  0000000140013EAC: 48 8B 4C 24 20     mov         rcx,qword ptr [rsp+20h]
  0000000140013EB1: 48 33 C8           xor         rcx,rax
  0000000140013EB4: 48 8B C1           mov         rax,rcx
  0000000140013EB7: 48 89 44 24 20     mov         qword ptr [rsp+20h],rax
  0000000140013EBC: 48 8D 4C 24 30     lea         rcx,[rsp+30h]
  0000000140013EC1: FF 15 E1 D1 00 00  call        qword ptr [__imp_QueryPerformanceCounter]
  0000000140013EC7: 8B 44 24 30        mov         eax,dword ptr [rsp+30h]
  0000000140013ECB: 48 C1 E0 20        shl         rax,20h
  0000000140013ECF: 48 33 44 24 30     xor         rax,qword ptr [rsp+30h]
  0000000140013ED4: 48 8B 4C 24 20     mov         rcx,qword ptr [rsp+20h]
  0000000140013ED9: 48 33 C8           xor         rcx,rax
  0000000140013EDC: 48 8B C1           mov         rax,rcx
  0000000140013EDF: 48 89 44 24 20     mov         qword ptr [rsp+20h],rax
  0000000140013EE4: 48 8D 44 24 20     lea         rax,[rsp+20h]
  0000000140013EE9: 48 8B 4C 24 20     mov         rcx,qword ptr [rsp+20h]
  0000000140013EEE: 48 33 C8           xor         rcx,rax
  0000000140013EF1: 48 8B C1           mov         rax,rcx
  0000000140013EF4: 48 89 44 24 20     mov         qword ptr [rsp+20h],rax
  0000000140013EF9: 48 B8 FF FF FF FF  mov         rax,0FFFFFFFFFFFFh
                    FF FF 00 00
  0000000140013F03: 48 8B 4C 24 20     mov         rcx,qword ptr [rsp+20h]
  0000000140013F08: 48 23 C8           and         rcx,rax
  0000000140013F0B: 48 8B C1           mov         rax,rcx
  0000000140013F0E: 48 89 44 24 20     mov         qword ptr [rsp+20h],rax
  0000000140013F13: 48 8B 44 24 20     mov         rax,qword ptr [rsp+20h]
  0000000140013F18: 48 83 C4 40        add         rsp,40h
  0000000140013F1C: 5F                 pop         rdi
  0000000140013F1D: C3                 ret
  0000000140013F1E: CC CC CC CC CC CC CC CC CC CC CC CC CC CC CC CC  ŒŒŒŒŒŒŒŒŒŒŒŒŒŒŒŒ
  0000000140013F2E: CC CC CC CC CC CC CC CC CC CC CC CC CC CC CC CC  ŒŒŒŒŒŒŒŒŒŒŒŒŒŒŒŒ
  0000000140013F3E: CC CC CC CC CC CC CC CC CC CC CC CC CC CC CC CC  ŒŒŒŒŒŒŒŒŒŒŒŒŒŒŒŒ
  0000000140013F4E: CC CC                                            ŒŒ
__security_init_cookie:
  0000000140013F50: 48 83 EC 38        sub         rsp,38h
  0000000140013F54: 48 B8 32 A2 DF 2D  mov         rax,2B992DDFA232h
                    99 2B 00 00
  0000000140013F5E: 48 39 05 9B 90 00  cmp         qword ptr [__security_cookie],rax
                    00
  0000000140013F65: 74 13              je          0000000140013F7A
  0000000140013F67: 48 8B 05 92 90 00  mov         rax,qword ptr [__security_cookie]
                    00
  0000000140013F6E: 48 F7 D0           not         rax
  0000000140013F71: 48 89 05 C8 90 00  mov         qword ptr [__security_cookie_complement],rax
                    00
  0000000140013F78: EB 45              jmp         0000000140013FBF
  0000000140013F7A: E8 E1 FE FF FF     call        0000000140013E60
  0000000140013F7F: 48 89 44 24 20     mov         qword ptr [rsp+20h],rax
  0000000140013F84: 48 B8 32 A2 DF 2D  mov         rax,2B992DDFA232h
                    99 2B 00 00
  0000000140013F8E: 48 39 44 24 20     cmp         qword ptr [rsp+20h],rax
  0000000140013F93: 75 0F              jne         0000000140013FA4
  0000000140013F95: 48 B8 33 A2 DF 2D  mov         rax,2B992DDFA233h
                    99 2B 00 00
  0000000140013F9F: 48 89 44 24 20     mov         qword ptr [rsp+20h],rax
  0000000140013FA4: 48 8B 44 24 20     mov         rax,qword ptr [rsp+20h]
  0000000140013FA9: 48 89 05 50 90 00  mov         qword ptr [__security_cookie],rax
                    00
  0000000140013FB0: 48 8B 44 24 20     mov         rax,qword ptr [rsp+20h]
  0000000140013FB5: 48 F7 D0           not         rax
  0000000140013FB8: 48 89 05 81 90 00  mov         qword ptr [__security_cookie_complement],rax
                    00
  0000000140013FBF: 48 83 C4 38        add         rsp,38h
  0000000140013FC3: C3                 ret
  0000000140013FC4: CC CC CC CC CC CC CC CC CC CC CC CC CC CC CC CC  ŒŒŒŒŒŒŒŒŒŒŒŒŒŒŒŒ
  0000000140013FD4: CC CC CC CC CC CC CC CC CC CC CC CC CC CC CC CC  ŒŒŒŒŒŒŒŒŒŒŒŒŒŒŒŒ
  0000000140013FE4: CC CC CC CC CC CC CC CC CC CC CC CC              ŒŒŒŒŒŒŒŒŒŒŒŒ
_matherr:
  0000000140013FF0: 48 89 4C 24 08     mov         qword ptr [rsp+8],rcx
  0000000140013FF5: 33 C0              xor         eax,eax
  0000000140013FF7: C3                 ret
  0000000140013FF8: CC CC CC CC CC CC CC CC                          ŒŒŒŒŒŒŒŒ
_get_startup_argv_mode:
  0000000140014000: B8 01 00 00 00     mov         eax,1
  0000000140014005: C3                 ret
  0000000140014006: CC CC CC CC CC CC CC CC CC CC                    ŒŒŒŒŒŒŒŒŒŒ
_get_startup_commit_mode:
  0000000140014010: 33 C0              xor         eax,eax
  0000000140014012: C3                 ret
  0000000140014013: CC CC CC CC CC CC CC CC CC CC CC CC CC           ŒŒŒŒŒŒŒŒŒŒŒŒŒ
_get_startup_file_mode:
  0000000140014020: B8 00 40 00 00     mov         eax,4000h
  0000000140014025: C3                 ret
  0000000140014026: CC CC CC CC CC CC CC CC CC CC                    ŒŒŒŒŒŒŒŒŒŒ
_get_startup_new_mode:
  0000000140014030: 33 C0              xor         eax,eax
  0000000140014032: C3                 ret
  0000000140014033: CC CC CC CC CC CC CC CC CC CC CC CC CC           ŒŒŒŒŒŒŒŒŒŒŒŒŒ
_get_startup_thread_locale_mode:
  0000000140014040: 33 C0              xor         eax,eax
  0000000140014042: C3                 ret
  0000000140014043: CC CC CC CC CC CC CC CC CC CC CC CC CC           ŒŒŒŒŒŒŒŒŒŒŒŒŒ
?__scrt_initialize_type_info@@YAXXZ:
  0000000140014050: 48 83 EC 28        sub         rsp,28h
  0000000140014054: 48 8D 0D 75 98 00  lea         rcx,[?__type_info_root_node@@3U__type_info_node@@A]
                    00
  000000014001405B: FF 15 2F D0 00 00  call        qword ptr [__imp_InitializeSListHead]
  0000000140014061: 90                 nop
  0000000140014062: 48 83 C4 28        add         rsp,28h
  0000000140014066: C3                 ret
  0000000140014067: CC CC CC CC CC CC CC CC CC                       ŒŒŒŒŒŒŒŒŒ
?__scrt_uninitialize_type_info@@YAXXZ:
  0000000140014070: 48 83 EC 28        sub         rsp,28h
  0000000140014074: 48 8D 0D 55 98 00  lea         rcx,[?__type_info_root_node@@3U__type_info_node@@A]
                    00
  000000014001407B: E8 9B D2 FF FF     call        @ILT+790(__std_type_info_destroy_list)
  0000000140014080: 90                 nop
  0000000140014081: 48 83 C4 28        add         rsp,28h
  0000000140014085: C3                 ret
  0000000140014086: CC CC CC CC CC CC CC CC CC CC                    ŒŒŒŒŒŒŒŒŒŒ
_should_initialize_environment:
  0000000140014090: B0 01              mov         al,1
  0000000140014092: C3                 ret
  0000000140014093: CC CC CC CC CC CC CC CC CC CC CC CC CC           ŒŒŒŒŒŒŒŒŒŒŒŒŒ
_initialize_invalid_parameter_handler:
  00000001400140A0: C2 00 00           ret         0
  00000001400140A3: CC CC CC CC CC CC CC CC CC CC CC CC CC           ŒŒŒŒŒŒŒŒŒŒŒŒŒ
_initialize_denormal_control:
  00000001400140B0: C2 00 00           ret         0
  00000001400140B3: CC CC CC CC CC CC CC CC CC CC CC CC CC           ŒŒŒŒŒŒŒŒŒŒŒŒŒ
__scrt_initialize_default_local_stdio_options:
  00000001400140C0: 48 83 EC 38        sub         rsp,38h
  00000001400140C4: E8 5F CF FF FF     call        @ILT+35(__local_stdio_printf_options)
  00000001400140C9: 48 89 44 24 20     mov         qword ptr [rsp+20h],rax
  00000001400140CE: 48 8B 44 24 20     mov         rax,qword ptr [rsp+20h]
  00000001400140D3: 48 8B 00           mov         rax,qword ptr [rax]
  00000001400140D6: 48 83 C8 24        or          rax,24h
  00000001400140DA: 48 8B 4C 24 20     mov         rcx,qword ptr [rsp+20h]
  00000001400140DF: 48 89 01           mov         qword ptr [rcx],rax
  00000001400140E2: E8 69 CF FF FF     call        @ILT+75(__local_stdio_scanf_options)
  00000001400140E7: 48 89 44 24 28     mov         qword ptr [rsp+28h],rax
  00000001400140EC: 48 8B 44 24 28     mov         rax,qword ptr [rsp+28h]
  00000001400140F1: 48 8B 00           mov         rax,qword ptr [rax]
  00000001400140F4: 48 83 C8 02        or          rax,2
  00000001400140F8: 48 8B 4C 24 28     mov         rcx,qword ptr [rsp+28h]
  00000001400140FD: 48 89 01           mov         qword ptr [rcx],rax
  0000000140014100: 48 83 C4 38        add         rsp,38h
  0000000140014104: C3                 ret
  0000000140014105: CC CC CC CC CC CC CC CC CC CC CC CC CC CC CC CC  ŒŒŒŒŒŒŒŒŒŒŒŒŒŒŒŒ
  0000000140014115: CC CC CC CC CC CC CC CC CC CC CC                 ŒŒŒŒŒŒŒŒŒŒŒ
__scrt_is_user_matherr_present:
  0000000140014120: 48 83 EC 18        sub         rsp,18h
  0000000140014124: 83 3D 49 8F 00 00  cmp         dword ptr [__scrt_default_matherr],0
                    00
  000000014001412B: 75 09              jne         0000000140014136
  000000014001412D: C7 04 24 01 00 00  mov         dword ptr [rsp],1
                    00
  0000000140014134: EB 07              jmp         000000014001413D
  0000000140014136: C7 04 24 00 00 00  mov         dword ptr [rsp],0
                    00
  000000014001413D: 8B 04 24           mov         eax,dword ptr [rsp]
  0000000140014140: 48 83 C4 18        add         rsp,18h
  0000000140014144: C3                 ret
  0000000140014145: CC CC CC CC CC CC CC CC CC CC CC                 ŒŒŒŒŒŒŒŒŒŒŒ
__scrt_get_dyn_tls_init_callback:
  0000000140014150: 48 8D 05 D1 97 00  lea         rax,[__dyn_tls_init_callback]
                    00
  0000000140014157: C3                 ret
  0000000140014158: CC CC CC CC CC CC CC CC                          ŒŒŒŒŒŒŒŒ
__scrt_get_dyn_tls_dtor_callback:
  0000000140014160: 48 8D 05 A9 97 00  lea         rax,[__dyn_tls_dtor_callback]
                    00
  0000000140014167: C3                 ret
  0000000140014168: CC CC CC CC CC CC CC CC                          ŒŒŒŒŒŒŒŒ
__crt_debugger_hook:
  0000000140014170: 89 4C 24 08        mov         dword ptr [rsp+8],ecx
  0000000140014174: C7 05 66 97 00 00  mov         dword ptr [__scrt_debugger_hook_flag],0
                    00 00 00 00
  000000014001417E: C3                 ret
  000000014001417F: CC CC CC CC CC CC CC CC CC CC CC CC CC CC CC CC  ŒŒŒŒŒŒŒŒŒŒŒŒŒŒŒŒ
  000000014001418F: CC                                               Œ
__scrt_fastfail:
  0000000140014190: 89 4C 24 08        mov         dword ptr [rsp+8],ecx
  0000000140014194: 57                 push        rdi
  0000000140014195: 48 81 EC F0 05 00  sub         rsp,5F0h
                    00
  000000014001419C: B9 17 00 00 00     mov         ecx,17h
  00000001400141A1: FF 15 09 CF 00 00  call        qword ptr [__imp_IsProcessorFeaturePresent]
  00000001400141A7: 85 C0              test        eax,eax
  00000001400141A9: 74 0B              je          00000001400141B6
  00000001400141AB: 8B 84 24 00 06 00  mov         eax,dword ptr [rsp+600h]
                    00
  00000001400141B2: 8B C8              mov         ecx,eax
  00000001400141B4: CD 29              int         29h
  00000001400141B6: B9 03 00 00 00     mov         ecx,3
  00000001400141BB: E8 38 D1 FF FF     call        @ILT+755(__crt_debugger_hook)
  00000001400141C0: 48 8D 84 24 20 01  lea         rax,[rsp+120h]
                    00 00
  00000001400141C8: 48 8B F8           mov         rdi,rax
  00000001400141CB: 33 C0              xor         eax,eax
  00000001400141CD: B9 D0 04 00 00     mov         ecx,4D0h
  00000001400141D2: F3 AA              rep stos    byte ptr [rdi]
  00000001400141D4: 48 8D 8C 24 20 01  lea         rcx,[rsp+120h]
                    00 00
  00000001400141DC: FF 15 46 CE 00 00  call        qword ptr [__imp_RtlCaptureContext]
  00000001400141E2: 48 8B 84 24 18 02  mov         rax,qword ptr [rsp+218h]
                    00 00
  00000001400141EA: 48 89 44 24 50     mov         qword ptr [rsp+50h],rax
  00000001400141EF: 45 33 C0           xor         r8d,r8d
  00000001400141F2: 48 8D 54 24 58     lea         rdx,[rsp+58h]
  00000001400141F7: 48 8B 4C 24 50     mov         rcx,qword ptr [rsp+50h]
  00000001400141FC: FF 15 2E CE 00 00  call        qword ptr [__imp_RtlLookupFunctionEntry]
  0000000140014202: 48 89 44 24 48     mov         qword ptr [rsp+48h],rax
  0000000140014207: 48 83 7C 24 48 00  cmp         qword ptr [rsp+48h],0
  000000014001420D: 74 42              je          0000000140014251
  000000014001420F: 48 C7 44 24 38 00  mov         qword ptr [rsp+38h],0
                    00 00 00
  0000000140014218: 48 8D 44 24 70     lea         rax,[rsp+70h]
  000000014001421D: 48 89 44 24 30     mov         qword ptr [rsp+30h],rax
  0000000140014222: 48 8D 44 24 78     lea         rax,[rsp+78h]
  0000000140014227: 48 89 44 24 28     mov         qword ptr [rsp+28h],rax
  000000014001422C: 48 8D 84 24 20 01  lea         rax,[rsp+120h]
                    00 00
  0000000140014234: 48 89 44 24 20     mov         qword ptr [rsp+20h],rax
  0000000140014239: 4C 8B 4C 24 48     mov         r9,qword ptr [rsp+48h]
  000000014001423E: 4C 8B 44 24 50     mov         r8,qword ptr [rsp+50h]
  0000000140014243: 48 8B 54 24 58     mov         rdx,qword ptr [rsp+58h]
  0000000140014248: 33 C9              xor         ecx,ecx
  000000014001424A: FF 15 E8 CD 00 00  call        qword ptr [__imp_RtlVirtualUnwind]
  0000000140014250: 90                 nop
  0000000140014251: 48 8B 84 24 F8 05  mov         rax,qword ptr [rsp+5F8h]
                    00 00
  0000000140014259: 48 89 84 24 18 02  mov         qword ptr [rsp+218h],rax
                    00 00
  0000000140014261: 48 8D 84 24 F8 05  lea         rax,[rsp+5F8h]
                    00 00
  0000000140014269: 48 83 C0 08        add         rax,8
  000000014001426D: 48 89 84 24 B8 01  mov         qword ptr [rsp+1B8h],rax
                    00 00
  0000000140014275: 48 8D 84 24 80 00  lea         rax,[rsp+80h]
                    00 00
  000000014001427D: 48 8B F8           mov         rdi,rax
  0000000140014280: 33 C0              xor         eax,eax
  0000000140014282: B9 98 00 00 00     mov         ecx,98h
  0000000140014287: F3 AA              rep stos    byte ptr [rdi]
  0000000140014289: C7 84 24 80 00 00  mov         dword ptr [rsp+80h],40000015h
                    00 15 00 00 40
  0000000140014294: C7 84 24 84 00 00  mov         dword ptr [rsp+84h],1
                    00 01 00 00 00
  000000014001429F: 48 8B 84 24 F8 05  mov         rax,qword ptr [rsp+5F8h]
                    00 00
  00000001400142A7: 48 89 84 24 90 00  mov         qword ptr [rsp+90h],rax
                    00 00
  00000001400142AF: FF 15 53 CD 00 00  call        qword ptr [__imp_IsDebuggerPresent]
  00000001400142B5: 83 F8 01           cmp         eax,1
  00000001400142B8: 75 07              jne         00000001400142C1
  00000001400142BA: C6 44 24 40 01     mov         byte ptr [rsp+40h],1
  00000001400142BF: EB 05              jmp         00000001400142C6
  00000001400142C1: C6 44 24 40 00     mov         byte ptr [rsp+40h],0
  00000001400142C6: 0F B6 44 24 40     movzx       eax,byte ptr [rsp+40h]
  00000001400142CB: 88 44 24 41        mov         byte ptr [rsp+41h],al
  00000001400142CF: 48 8D 84 24 80 00  lea         rax,[rsp+80h]
                    00 00
  00000001400142D7: 48 89 44 24 60     mov         qword ptr [rsp+60h],rax
  00000001400142DC: 48 8D 84 24 20 01  lea         rax,[rsp+120h]
                    00 00
  00000001400142E4: 48 89 44 24 68     mov         qword ptr [rsp+68h],rax
  00000001400142E9: 33 C9              xor         ecx,ecx
  00000001400142EB: FF 15 D7 CD 00 00  call        qword ptr [__imp_SetUnhandledExceptionFilter]
  00000001400142F1: 48 8D 4C 24 60     lea         rcx,[rsp+60h]
  00000001400142F6: FF 15 44 CD 00 00  call        qword ptr [__imp_UnhandledExceptionFilter]
  00000001400142FC: 89 44 24 44        mov         dword ptr [rsp+44h],eax
  0000000140014300: 83 7C 24 44 00     cmp         dword ptr [rsp+44h],0
  0000000140014305: 75 14              jne         000000014001431B
  0000000140014307: 0F B6 44 24 41     movzx       eax,byte ptr [rsp+41h]
  000000014001430C: 85 C0              test        eax,eax
  000000014001430E: 75 0B              jne         000000014001431B
  0000000140014310: B9 03 00 00 00     mov         ecx,3
  0000000140014315: E8 DE CF FF FF     call        @ILT+755(__crt_debugger_hook)
  000000014001431A: 90                 nop
  000000014001431B: 48 81 C4 F0 05 00  add         rsp,5F0h
                    00
  0000000140014322: 5F                 pop         rdi
  0000000140014323: C3                 ret
  0000000140014324: CC CC CC CC CC CC CC CC CC CC CC CC CC CC CC CC  ŒŒŒŒŒŒŒŒŒŒŒŒŒŒŒŒ
  0000000140014334: CC CC CC CC CC CC CC CC CC CC CC CC CC CC CC CC  ŒŒŒŒŒŒŒŒŒŒŒŒŒŒŒŒ
  0000000140014344: CC CC CC CC CC CC CC CC CC CC CC CC CC CC CC CC  ŒŒŒŒŒŒŒŒŒŒŒŒŒŒŒŒ
  0000000140014354: CC CC CC CC CC CC CC CC CC CC CC CC CC CC CC CC  ŒŒŒŒŒŒŒŒŒŒŒŒŒŒŒŒ
  0000000140014364: CC CC CC CC CC CC CC CC CC CC CC CC CC CC CC CC  ŒŒŒŒŒŒŒŒŒŒŒŒŒŒŒŒ
  0000000140014374: CC CC CC CC CC CC CC CC CC CC CC CC CC CC CC CC  ŒŒŒŒŒŒŒŒŒŒŒŒŒŒŒŒ
  0000000140014384: CC CC CC CC CC CC CC CC CC CC CC CC              ŒŒŒŒŒŒŒŒŒŒŒŒ
__scrt_get_show_window_mode:
  0000000140014390: 40 57              push        rdi
  0000000140014392: 48 81 EC A0 00 00  sub         rsp,0A0h
                    00
  0000000140014399: 48 8D 44 24 30     lea         rax,[rsp+30h]
  000000014001439E: 48 8B F8           mov         rdi,rax
  00000001400143A1: 33 C0              xor         eax,eax
  00000001400143A3: B9 68 00 00 00     mov         ecx,68h
  00000001400143A8: F3 AA              rep stos    byte ptr [rdi]
  00000001400143AA: 48 8D 4C 24 30     lea         rcx,[rsp+30h]
  00000001400143AF: FF 15 4B CC 00 00  call        qword ptr [__imp_GetStartupInfoW]
  00000001400143B5: 8B 44 24 6C        mov         eax,dword ptr [rsp+6Ch]
  00000001400143B9: 83 E0 01           and         eax,1
  00000001400143BC: 85 C0              test        eax,eax
  00000001400143BE: 74 0B              je          00000001400143CB
  00000001400143C0: 0F B7 44 24 70     movzx       eax,word ptr [rsp+70h]
  00000001400143C5: 89 44 24 20        mov         dword ptr [rsp+20h],eax
  00000001400143C9: EB 08              jmp         00000001400143D3
  00000001400143CB: C7 44 24 20 0A 00  mov         dword ptr [rsp+20h],0Ah
                    00 00
  00000001400143D3: 0F B7 44 24 20     movzx       eax,word ptr [rsp+20h]
  00000001400143D8: 48 81 C4 A0 00 00  add         rsp,0A0h
                    00
  00000001400143DF: 5F                 pop         rdi
  00000001400143E0: C3                 ret
  00000001400143E1: CC CC CC CC CC CC CC CC CC CC CC CC CC CC CC CC  ŒŒŒŒŒŒŒŒŒŒŒŒŒŒŒŒ
  00000001400143F1: CC CC CC CC CC CC CC CC CC CC CC CC CC CC CC     ŒŒŒŒŒŒŒŒŒŒŒŒŒŒŒ
__scrt_initialize_mta:
  0000000140014400: 48 83 EC 28        sub         rsp,28h
  0000000140014404: E8 10 CC FF FF     call        @ILT+20(__scrt_exe_initialize_mta)
  0000000140014409: 48 83 C4 28        add         rsp,28h
  000000014001440D: C3                 ret
  000000014001440E: CC CC CC CC CC CC CC CC CC CC CC CC CC CC CC CC  ŒŒŒŒŒŒŒŒŒŒŒŒŒŒŒŒ
  000000014001441E: CC CC                                            ŒŒ
__scrt_initialize_winrt:
  0000000140014420: 33 C0              xor         eax,eax
  0000000140014422: C3                 ret
  0000000140014423: CC CC CC CC CC CC CC CC CC CC CC CC CC           ŒŒŒŒŒŒŒŒŒŒŒŒŒ
__scrt_is_managed_app:
  0000000140014430: 48 83 EC 38        sub         rsp,38h
  0000000140014434: 33 C9              xor         ecx,ecx
  0000000140014436: FF 15 44 CC 00 00  call        qword ptr [__imp_GetModuleHandleW]
  000000014001443C: 48 89 44 24 20     mov         qword ptr [rsp+20h],rax
  0000000140014441: 48 83 7C 24 20 00  cmp         qword ptr [rsp+20h],0
  0000000140014447: 75 07              jne         0000000140014450
  0000000140014449: 32 C0              xor         al,al
  000000014001444B: E9 81 00 00 00     jmp         00000001400144D1
  0000000140014450: 48 8B 44 24 20     mov         rax,qword ptr [rsp+20h]
  0000000140014455: 0F B7 00           movzx       eax,word ptr [rax]
  0000000140014458: 3D 4D 5A 00 00     cmp         eax,5A4Dh
  000000014001445D: 74 04              je          0000000140014463
  000000014001445F: 32 C0              xor         al,al
  0000000140014461: EB 6E              jmp         00000001400144D1
  0000000140014463: 48 8B 44 24 20     mov         rax,qword ptr [rsp+20h]
  0000000140014468: 48 63 40 3C        movsxd      rax,dword ptr [rax+3Ch]
  000000014001446C: 48 8B 4C 24 20     mov         rcx,qword ptr [rsp+20h]
  0000000140014471: 48 03 C8           add         rcx,rax
  0000000140014474: 48 8B C1           mov         rax,rcx
  0000000140014477: 48 89 44 24 28     mov         qword ptr [rsp+28h],rax
  000000014001447C: 48 8B 44 24 28     mov         rax,qword ptr [rsp+28h]
  0000000140014481: 81 38 50 45 00 00  cmp         dword ptr [rax],4550h
  0000000140014487: 74 04              je          000000014001448D
  0000000140014489: 32 C0              xor         al,al
  000000014001448B: EB 44              jmp         00000001400144D1
  000000014001448D: 48 8B 44 24 28     mov         rax,qword ptr [rsp+28h]
  0000000140014492: 0F B7 40 18        movzx       eax,word ptr [rax+18h]
  0000000140014496: 3D 0B 02 00 00     cmp         eax,20Bh
  000000014001449B: 74 04              je          00000001400144A1
  000000014001449D: 32 C0              xor         al,al
  000000014001449F: EB 30              jmp         00000001400144D1
  00000001400144A1: 48 8B 44 24 28     mov         rax,qword ptr [rsp+28h]
  00000001400144A6: 83 B8 84 00 00 00  cmp         dword ptr [rax+84h],0Eh
                    0E
  00000001400144AD: 77 04              ja          00000001400144B3
  00000001400144AF: 32 C0              xor         al,al
  00000001400144B1: EB 1E              jmp         00000001400144D1
  00000001400144B3: B8 08 00 00 00     mov         eax,8
  00000001400144B8: 48 6B C0 0E        imul        rax,rax,0Eh
  00000001400144BC: 48 8B 4C 24 28     mov         rcx,qword ptr [rsp+28h]
  00000001400144C1: 83 BC 01 88 00 00  cmp         dword ptr [rcx+rax+88h],0
                    00 00
  00000001400144C9: 75 04              jne         00000001400144CF
  00000001400144CB: 32 C0              xor         al,al
  00000001400144CD: EB 02              jmp         00000001400144D1
  00000001400144CF: B0 01              mov         al,1
  00000001400144D1: 48 83 C4 38        add         rsp,38h
  00000001400144D5: C3                 ret
  00000001400144D6: CC CC CC CC CC CC CC CC CC CC CC CC CC CC CC CC  ŒŒŒŒŒŒŒŒŒŒŒŒŒŒŒŒ
  00000001400144E6: CC CC CC CC CC CC CC CC CC CC CC CC CC CC CC CC  ŒŒŒŒŒŒŒŒŒŒŒŒŒŒŒŒ
  00000001400144F6: CC CC CC CC CC CC CC CC CC CC                    ŒŒŒŒŒŒŒŒŒŒ
__scrt_set_unhandled_exception_filter:
  0000000140014500: 48 83 EC 28        sub         rsp,28h
  0000000140014504: 48 8D 0D EF CB FF  lea         rcx,[@ILT+245(__scrt_unhandled_exception_filter)]
                    FF
  000000014001450B: FF 15 B7 CB 00 00  call        qword ptr [__imp_SetUnhandledExceptionFilter]
  0000000140014511: 90                 nop
  0000000140014512: 48 83 C4 28        add         rsp,28h
  0000000140014516: C3                 ret
  0000000140014517: CC CC CC CC CC CC CC CC CC                       ŒŒŒŒŒŒŒŒŒ
__scrt_exe_initialize_mta:
  0000000140014520: 33 C0              xor         eax,eax
  0000000140014522: C3                 ret
  0000000140014523: CC CC CC CC CC CC CC CC CC CC CC CC CC           ŒŒŒŒŒŒŒŒŒŒŒŒŒ
__scrt_unhandled_exception_filter:
  0000000140014530: 48 89 4C 24 08     mov         qword ptr [rsp+8],rcx
  0000000140014535: 48 83 EC 38        sub         rsp,38h
  0000000140014539: 48 8B 44 24 40     mov         rax,qword ptr [rsp+40h]
  000000014001453E: 48 8B 00           mov         rax,qword ptr [rax]
  0000000140014541: 48 89 44 24 20     mov         qword ptr [rsp+20h],rax
  0000000140014546: 48 8B 44 24 20     mov         rax,qword ptr [rsp+20h]
  000000014001454B: 81 38 63 73 6D E0  cmp         dword ptr [rax],0E06D7363h
  0000000140014551: 75 71              jne         00000001400145C4
  0000000140014553: 48 8B 44 24 20     mov         rax,qword ptr [rsp+20h]
  0000000140014558: 83 78 18 04        cmp         dword ptr [rax+18h],4
  000000014001455C: 75 66              jne         00000001400145C4
  000000014001455E: 48 8B 44 24 20     mov         rax,qword ptr [rsp+20h]
  0000000140014563: 81 78 20 20 05 93  cmp         dword ptr [rax+20h],19930520h
                    19
  000000014001456A: 74 2A              je          0000000140014596
  000000014001456C: 48 8B 44 24 20     mov         rax,qword ptr [rsp+20h]
  0000000140014571: 81 78 20 21 05 93  cmp         dword ptr [rax+20h],19930521h
                    19
  0000000140014578: 74 1C              je          0000000140014596
  000000014001457A: 48 8B 44 24 20     mov         rax,qword ptr [rsp+20h]
  000000014001457F: 81 78 20 22 05 93  cmp         dword ptr [rax+20h],19930522h
                    19
  0000000140014586: 74 0E              je          0000000140014596
  0000000140014588: 48 8B 44 24 20     mov         rax,qword ptr [rsp+20h]
  000000014001458D: 81 78 20 00 40 99  cmp         dword ptr [rax+20h],1994000h
                    01
  0000000140014594: 75 2E              jne         00000001400145C4
  0000000140014596: E8 FB CA FF FF     call        @ILT+145(__current_exception)
  000000014001459B: 48 8B 4C 24 20     mov         rcx,qword ptr [rsp+20h]
  00000001400145A0: 48 89 08           mov         qword ptr [rax],rcx
  00000001400145A3: 48 8B 44 24 40     mov         rax,qword ptr [rsp+40h]
  00000001400145A8: 48 8B 40 08        mov         rax,qword ptr [rax+8]
  00000001400145AC: 48 89 44 24 28     mov         qword ptr [rsp+28h],rax
  00000001400145B1: E8 93 CC FF FF     call        @ILT+580(__current_exception_context)
  00000001400145B6: 48 8B 4C 24 28     mov         rcx,qword ptr [rsp+28h]
  00000001400145BB: 48 89 08           mov         qword ptr [rax],rcx
  00000001400145BE: E8 6A CA FF FF     call        @ILT+40(terminate)
  00000001400145C3: 90                 nop
  00000001400145C4: 33 C0              xor         eax,eax
  00000001400145C6: 48 83 C4 38        add         rsp,38h
  00000001400145CA: C3                 ret
  00000001400145CB: CC CC CC CC CC CC CC CC CC CC CC CC CC CC CC CC  ŒŒŒŒŒŒŒŒŒŒŒŒŒŒŒŒ
  00000001400145DB: CC CC CC CC CC CC CC CC CC CC CC CC CC CC CC CC  ŒŒŒŒŒŒŒŒŒŒŒŒŒŒŒŒ
  00000001400145EB: CC CC CC CC CC CC CC CC CC CC CC CC CC CC CC CC  ŒŒŒŒŒŒŒŒŒŒŒŒŒŒŒŒ
  00000001400145FB: CC CC CC CC CC                                   ŒŒŒŒŒ
_RTC_Initialize:
  0000000140014600: 48 89 5C 24 08     mov         qword ptr [rsp+8],rbx
  0000000140014605: 57                 push        rdi
  0000000140014606: 48 83 EC 20        sub         rsp,20h
  000000014001460A: 48 8D 1D 9F 79 00  lea         rbx,[14001BFB0h]
                    00
  0000000140014611: 48 8D 3D B0 7B 00  lea         rdi,[__rtc_izz]
                    00
  0000000140014618: 48 3B DF           cmp         rbx,rdi
  000000014001461B: 73 1A              jae         0000000140014637
  000000014001461D: 0F 1F 00           nop         dword ptr [rax]
  0000000140014620: 48 8B 03           mov         rax,qword ptr [rbx]
  0000000140014623: 48 85 C0           test        rax,rax
  0000000140014626: 74 06              je          000000014001462E
  0000000140014628: FF 15 F2 E9 00 00  call        qword ptr [__guard_dispatch_icall_fptr]
  000000014001462E: 48 83 C3 08        add         rbx,8
  0000000140014632: 48 3B DF           cmp         rbx,rdi
  0000000140014635: 72 E9              jb          0000000140014620
  0000000140014637: 48 8B 5C 24 30     mov         rbx,qword ptr [rsp+30h]
  000000014001463C: 48 83 C4 20        add         rsp,20h
  0000000140014640: 5F                 pop         rdi
  0000000140014641: C3                 ret
  0000000140014642: CC CC CC CC CC CC CC CC CC CC CC CC CC CC CC CC  ŒŒŒŒŒŒŒŒŒŒŒŒŒŒŒŒ
  0000000140014652: CC CC CC CC CC CC CC CC CC CC CC CC CC CC        ŒŒŒŒŒŒŒŒŒŒŒŒŒŒ
_RTC_Terminate:
  0000000140014660: 48 89 5C 24 08     mov         qword ptr [rsp+8],rbx
  0000000140014665: 57                 push        rdi
  0000000140014666: 48 83 EC 20        sub         rsp,20h
  000000014001466A: 48 8D 1D 6F 7C 00  lea         rbx,[14001C2E0h]
                    00
  0000000140014671: 48 8D 3D 80 7E 00  lea         rdi,[__rtc_tzz]
                    00
  0000000140014678: 48 3B DF           cmp         rbx,rdi
  000000014001467B: 73 1A              jae         0000000140014697
  000000014001467D: 0F 1F 00           nop         dword ptr [rax]
  0000000140014680: 48 8B 03           mov         rax,qword ptr [rbx]
  0000000140014683: 48 85 C0           test        rax,rax
  0000000140014686: 74 06              je          000000014001468E
  0000000140014688: FF 15 92 E9 00 00  call        qword ptr [__guard_dispatch_icall_fptr]
  000000014001468E: 48 83 C3 08        add         rbx,8
  0000000140014692: 48 3B DF           cmp         rbx,rdi
  0000000140014695: 72 E9              jb          0000000140014680
  0000000140014697: 48 8B 5C 24 30     mov         rbx,qword ptr [rsp+30h]
  000000014001469C: 48 83 C4 20        add         rsp,20h
  00000001400146A0: 5F                 pop         rdi
  00000001400146A1: C3                 ret
  00000001400146A2: CC CC CC CC CC CC CC CC CC CC CC CC CC CC CC CC  ŒŒŒŒŒŒŒŒŒŒŒŒŒŒŒŒ
  00000001400146B2: CC CC CC CC CC CC CC CC CC CC CC CC CC CC        ŒŒŒŒŒŒŒŒŒŒŒŒŒŒ
_guard_check_icall_nop:
  00000001400146C0: 48 89 4C 24 08     mov         qword ptr [rsp+8],rcx
  00000001400146C5: C3                 ret
  00000001400146C6: CC CC CC CC CC CC CC CC CC CC                    ŒŒŒŒŒŒŒŒŒŒ
ReadNoFence64:
  00000001400146D0: 48 89 4C 24 08     mov         qword ptr [rsp+8],rcx
  00000001400146D5: 48 83 EC 18        sub         rsp,18h
  00000001400146D9: 48 8B 44 24 20     mov         rax,qword ptr [rsp+20h]
  00000001400146DE: 48 8B 00           mov         rax,qword ptr [rax]
  00000001400146E1: 48 89 04 24        mov         qword ptr [rsp],rax
  00000001400146E5: 48 8B 04 24        mov         rax,qword ptr [rsp]
  00000001400146E9: 48 83 C4 18        add         rsp,18h
  00000001400146ED: C3                 ret
  00000001400146EE: CC CC CC CC CC CC CC CC CC CC CC CC CC CC CC CC  ŒŒŒŒŒŒŒŒŒŒŒŒŒŒŒŒ
  00000001400146FE: CC CC                                            ŒŒ
ReadPointerNoFence:
  0000000140014700: 48 89 4C 24 08     mov         qword ptr [rsp+8],rcx
  0000000140014705: 48 83 EC 28        sub         rsp,28h
  0000000140014709: 48 8B 4C 24 30     mov         rcx,qword ptr [rsp+30h]
  000000014001470E: E8 56 C9 FF FF     call        @ILT+100(ReadNoFence64)
  0000000140014713: 48 83 C4 28        add         rsp,28h
  0000000140014717: C3                 ret
  0000000140014718: CC CC CC CC CC CC CC CC                          ŒŒŒŒŒŒŒŒ
__castguard_check_failure_debugbreak:
  0000000140014720: 48 89 4C 24 08     mov         qword ptr [rsp+8],rcx
  0000000140014725: 48 83 EC 28        sub         rsp,28h
  0000000140014729: 48 8B 4C 24 30     mov         rcx,qword ptr [rsp+30h]
  000000014001472E: E8 5D 01 00 00     call        0000000140014890
  0000000140014733: 85 C0              test        eax,eax
  0000000140014735: 74 01              je          0000000140014738
  0000000140014737: CC                 int         3
  0000000140014738: 48 83 C4 28        add         rsp,28h
  000000014001473C: C3                 ret
  000000014001473D: CC CC CC CC CC CC CC CC CC CC CC CC CC CC CC CC  ŒŒŒŒŒŒŒŒŒŒŒŒŒŒŒŒ
  000000014001474D: CC CC CC                                         ŒŒŒ
__castguard_check_failure_fastfail:
  0000000140014750: 48 89 4C 24 08     mov         qword ptr [rsp+8],rcx
  0000000140014755: 48 83 EC 28        sub         rsp,28h
  0000000140014759: 48 8B 4C 24 30     mov         rcx,qword ptr [rsp+30h]
  000000014001475E: E8 2D 01 00 00     call        0000000140014890
  0000000140014763: 85 C0              test        eax,eax
  0000000140014765: 74 07              je          000000014001476E
  0000000140014767: B9 41 00 00 00     mov         ecx,41h
  000000014001476C: CD 29              int         29h
  000000014001476E: 48 83 C4 28        add         rsp,28h
  0000000140014772: C3                 ret
  0000000140014773: CC CC CC CC CC CC CC CC CC CC CC CC CC           ŒŒŒŒŒŒŒŒŒŒŒŒŒ
__castguard_check_failure_nop:
  0000000140014780: 48 89 4C 24 08     mov         qword ptr [rsp+8],rcx
  0000000140014785: C3                 ret
  0000000140014786: CC CC CC CC CC CC CC CC CC CC                    ŒŒŒŒŒŒŒŒŒŒ
__castguard_check_failure_os_handled:
  0000000140014790: 48 89 4C 24 08     mov         qword ptr [rsp+8],rcx
  0000000140014795: 48 83 EC 28        sub         rsp,28h
  0000000140014799: 48 8B 4C 24 30     mov         rcx,qword ptr [rsp+30h]
  000000014001479E: E8 ED 00 00 00     call        0000000140014890
  00000001400147A3: 85 C0              test        eax,eax
  00000001400147A5: 74 0B              je          00000001400147B2
  00000001400147A7: 48 8B 4C 24 30     mov         rcx,qword ptr [rsp+30h]
  00000001400147AC: E8 0F 00 00 00     call        00000001400147C0
  00000001400147B1: 90                 nop
  00000001400147B2: 48 83 C4 28        add         rsp,28h
  00000001400147B6: C3                 ret
  00000001400147B7: CC CC CC CC CC CC CC CC CC                       ŒŒŒŒŒŒŒŒŒ
__castguard_check_failure_os_handled_wrapper:
  00000001400147C0: 48 89 4C 24 08     mov         qword ptr [rsp+8],rcx
  00000001400147C5: 48 83 EC 38        sub         rsp,38h
  00000001400147C9: 48 8D 0D 80 E8 00  lea         rcx,[__castguard_check_failure_os_handled_fptr]
                    00
  00000001400147D0: E8 A2 C9 FF FF     call        @ILT+370(ReadPointerNoFence)
  00000001400147D5: 48 89 44 24 20     mov         qword ptr [rsp+20h],rax
  00000001400147DA: 48 83 7C 24 20 00  cmp         qword ptr [rsp+20h],0
  00000001400147E0: 74 0A              je          00000001400147EC
  00000001400147E2: 48 8B 4C 24 40     mov         rcx,qword ptr [rsp+40h]
  00000001400147E7: FF 54 24 20        call        qword ptr [rsp+20h]
  00000001400147EB: 90                 nop
  00000001400147EC: 48 83 C4 38        add         rsp,38h
  00000001400147F0: C3                 ret
  00000001400147F1: CC CC CC CC CC CC CC CC CC CC CC CC CC CC CC     ŒŒŒŒŒŒŒŒŒŒŒŒŒŒŒ
__castguard_check_failure_user_handled:
  0000000140014800: 48 89 4C 24 08     mov         qword ptr [rsp+8],rcx
  0000000140014805: 48 83 EC 28        sub         rsp,28h
  0000000140014809: 48 8B 4C 24 30     mov         rcx,qword ptr [rsp+30h]
  000000014001480E: E8 7D 00 00 00     call        0000000140014890
  0000000140014813: 85 C0              test        eax,eax
  0000000140014815: 74 0B              je          0000000140014822
  0000000140014817: 48 8B 4C 24 30     mov         rcx,qword ptr [rsp+30h]
  000000014001481C: E8 0F 00 00 00     call        0000000140014830
  0000000140014821: 90                 nop
  0000000140014822: 48 83 C4 28        add         rsp,28h
  0000000140014826: C3                 ret
  0000000140014827: CC CC CC CC CC CC CC CC CC                       ŒŒŒŒŒŒŒŒŒ
__castguard_check_failure_user_handled_wrapper:
  0000000140014830: 48 89 4C 24 08     mov         qword ptr [rsp+8],rcx
  0000000140014835: 48 83 EC 38        sub         rsp,38h
  0000000140014839: 48 8D 0D A8 90 00  lea         rcx,[__castguard_check_failure_user_handled_fptr]
                    00
  0000000140014840: E8 32 C9 FF FF     call        @ILT+370(ReadPointerNoFence)
  0000000140014845: 48 89 44 24 20     mov         qword ptr [rsp+20h],rax
  000000014001484A: 48 83 7C 24 20 00  cmp         qword ptr [rsp+20h],0
  0000000140014850: 74 1B              je          000000014001486D
  0000000140014852: 48 8B 44 24 20     mov         rax,qword ptr [rsp+20h]
  0000000140014857: 48 89 44 24 28     mov         qword ptr [rsp+28h],rax
  000000014001485C: 48 8B 4C 24 40     mov         rcx,qword ptr [rsp+40h]
  0000000140014861: 48 8B 44 24 28     mov         rax,qword ptr [rsp+28h]
  0000000140014866: FF 15 B4 E7 00 00  call        qword ptr [__guard_dispatch_icall_fptr]
  000000014001486C: 90                 nop
  000000014001486D: 48 83 C4 38        add         rsp,38h
  0000000140014871: C3                 ret
  0000000140014872: CC CC CC CC CC CC CC CC CC CC CC CC CC CC CC CC  ŒŒŒŒŒŒŒŒŒŒŒŒŒŒŒŒ
  0000000140014882: CC CC CC CC CC CC CC CC CC CC CC CC CC CC        ŒŒŒŒŒŒŒŒŒŒŒŒŒŒ
__castguard_compat_check:
  0000000140014890: 48 89 4C 24 08     mov         qword ptr [rsp+8],rcx
  0000000140014895: 48 83 EC 28        sub         rsp,28h
  0000000140014899: 48 8D 05 E0 71 00  lea         rax,[__CastGuardVftablesStart]
                    00
  00000001400148A0: 48 05 80 00 00 00  add         rax,80h
  00000001400148A6: 48 89 44 24 08     mov         qword ptr [rsp+8],rax
  00000001400148AB: 48 8D 05 CE 73 00  lea         rax,[__CastGuardVftablesEnd]
                    00
  00000001400148B2: 48 89 44 24 10     mov         qword ptr [rsp+10h],rax
  00000001400148B7: 48 8B 44 24 08     mov         rax,qword ptr [rsp+8]
  00000001400148BC: 48 8B 4C 24 10     mov         rcx,qword ptr [rsp+10h]
  00000001400148C1: 48 2B C8           sub         rcx,rax
  00000001400148C4: 48 8B C1           mov         rax,rcx
  00000001400148C7: 48 89 44 24 18     mov         qword ptr [rsp+18h],rax
  00000001400148CC: 48 8B 44 24 08     mov         rax,qword ptr [rsp+8]
  00000001400148D1: 48 8B 4C 24 30     mov         rcx,qword ptr [rsp+30h]
  00000001400148D6: 48 2B C8           sub         rcx,rax
  00000001400148D9: 48 8B C1           mov         rax,rcx
  00000001400148DC: 48 3B 44 24 18     cmp         rax,qword ptr [rsp+18h]
  00000001400148E1: 77 09              ja          00000001400148EC
  00000001400148E3: C7 04 24 01 00 00  mov         dword ptr [rsp],1
                    00
  00000001400148EA: EB 07              jmp         00000001400148F3
  00000001400148EC: C7 04 24 00 00 00  mov         dword ptr [rsp],0
                    00
  00000001400148F3: 8B 04 24           mov         eax,dword ptr [rsp]
  00000001400148F6: 48 83 C4 28        add         rsp,28h
  00000001400148FA: C3                 ret
  00000001400148FB: CC CC CC CC CC CC CC CC CC CC CC CC CC CC CC CC  ŒŒŒŒŒŒŒŒŒŒŒŒŒŒŒŒ
  000000014001490B: CC CC CC CC CC CC CC CC CC CC CC CC CC CC CC CC  ŒŒŒŒŒŒŒŒŒŒŒŒŒŒŒŒ
  000000014001491B: CC CC CC CC CC                                   ŒŒŒŒŒ
__castguard_set_user_handler:
  0000000140014920: 48 89 4C 24 08     mov         qword ptr [rsp+8],rcx
  0000000140014925: 48 83 EC 18        sub         rsp,18h
  0000000140014929: 48 8B 44 24 20     mov         rax,qword ptr [rsp+20h]
  000000014001492E: 48 8D 0D B3 8F 00  lea         rcx,[__castguard_check_failure_user_handled_fptr]
                    00
  0000000140014935: 48 87 01           xchg        rax,qword ptr [rcx]
  0000000140014938: 48 89 04 24        mov         qword ptr [rsp],rax
  000000014001493C: 48 8B 04 24        mov         rax,qword ptr [rsp]
  0000000140014940: 48 83 C4 18        add         rsp,18h
  0000000140014944: C3                 ret
  0000000140014945: CC CC CC CC CC CC CC CC CC CC CC                 ŒŒŒŒŒŒŒŒŒŒŒ
__castguard_slow_path_check_debugbreak:
  0000000140014950: 4C 89 44 24 18     mov         qword ptr [rsp+18h],r8
  0000000140014955: 48 89 54 24 10     mov         qword ptr [rsp+10h],rdx
  000000014001495A: 48 89 4C 24 08     mov         qword ptr [rsp+8],rcx
  000000014001495F: 48 83 EC 28        sub         rsp,28h
  0000000140014963: 4C 8B 44 24 40     mov         r8,qword ptr [rsp+40h]
  0000000140014968: 48 8B 54 24 38     mov         rdx,qword ptr [rsp+38h]
  000000014001496D: 48 8B 4C 24 30     mov         rcx,qword ptr [rsp+30h]
  0000000140014972: E8 69 01 00 00     call        0000000140014AE0
  0000000140014977: 85 C0              test        eax,eax
  0000000140014979: 74 0F              je          000000014001498A
  000000014001497B: 48 8B 4C 24 30     mov         rcx,qword ptr [rsp+30h]
  0000000140014980: E8 0B FF FF FF     call        0000000140014890
  0000000140014985: 85 C0              test        eax,eax
  0000000140014987: 74 01              je          000000014001498A
  0000000140014989: CC                 int         3
  000000014001498A: 48 83 C4 28        add         rsp,28h
  000000014001498E: C3                 ret
  000000014001498F: CC CC CC CC CC CC CC CC CC CC CC CC CC CC CC CC  ŒŒŒŒŒŒŒŒŒŒŒŒŒŒŒŒ
  000000014001499F: CC                                               Œ
__castguard_slow_path_check_fastfail:
  00000001400149A0: 4C 89 44 24 18     mov         qword ptr [rsp+18h],r8
  00000001400149A5: 48 89 54 24 10     mov         qword ptr [rsp+10h],rdx
  00000001400149AA: 48 89 4C 24 08     mov         qword ptr [rsp+8],rcx
  00000001400149AF: 48 83 EC 28        sub         rsp,28h
  00000001400149B3: 4C 8B 44 24 40     mov         r8,qword ptr [rsp+40h]
  00000001400149B8: 48 8B 54 24 38     mov         rdx,qword ptr [rsp+38h]
  00000001400149BD: 48 8B 4C 24 30     mov         rcx,qword ptr [rsp+30h]
  00000001400149C2: E8 19 01 00 00     call        0000000140014AE0
  00000001400149C7: 85 C0              test        eax,eax
  00000001400149C9: 74 15              je          00000001400149E0
  00000001400149CB: 48 8B 4C 24 30     mov         rcx,qword ptr [rsp+30h]
  00000001400149D0: E8 BB FE FF FF     call        0000000140014890
  00000001400149D5: 85 C0              test        eax,eax
  00000001400149D7: 74 07              je          00000001400149E0
  00000001400149D9: B9 41 00 00 00     mov         ecx,41h
  00000001400149DE: CD 29              int         29h
  00000001400149E0: 48 83 C4 28        add         rsp,28h
  00000001400149E4: C3                 ret
  00000001400149E5: CC CC CC CC CC CC CC CC CC CC CC CC CC CC CC CC  ŒŒŒŒŒŒŒŒŒŒŒŒŒŒŒŒ
  00000001400149F5: CC CC CC CC CC CC CC CC CC CC CC                 ŒŒŒŒŒŒŒŒŒŒŒ
__castguard_slow_path_check_nop:
  0000000140014A00: 4C 89 44 24 18     mov         qword ptr [rsp+18h],r8
  0000000140014A05: 48 89 54 24 10     mov         qword ptr [rsp+10h],rdx
  0000000140014A0A: 48 89 4C 24 08     mov         qword ptr [rsp+8],rcx
  0000000140014A0F: C3                 ret
  0000000140014A10: CC CC CC CC CC CC CC CC CC CC CC CC CC CC CC CC  ŒŒŒŒŒŒŒŒŒŒŒŒŒŒŒŒ
__castguard_slow_path_check_os_handled:
  0000000140014A20: 4C 89 44 24 18     mov         qword ptr [rsp+18h],r8
  0000000140014A25: 48 89 54 24 10     mov         qword ptr [rsp+10h],rdx
  0000000140014A2A: 48 89 4C 24 08     mov         qword ptr [rsp+8],rcx
  0000000140014A2F: 48 83 EC 28        sub         rsp,28h
  0000000140014A33: 4C 8B 44 24 40     mov         r8,qword ptr [rsp+40h]
  0000000140014A38: 48 8B 54 24 38     mov         rdx,qword ptr [rsp+38h]
  0000000140014A3D: 48 8B 4C 24 30     mov         rcx,qword ptr [rsp+30h]
  0000000140014A42: E8 99 00 00 00     call        0000000140014AE0
  0000000140014A47: 85 C0              test        eax,eax
  0000000140014A49: 74 19              je          0000000140014A64
  0000000140014A4B: 48 8B 4C 24 30     mov         rcx,qword ptr [rsp+30h]
  0000000140014A50: E8 3B FE FF FF     call        0000000140014890
  0000000140014A55: 85 C0              test        eax,eax
  0000000140014A57: 74 0B              je          0000000140014A64
  0000000140014A59: 48 8B 4C 24 30     mov         rcx,qword ptr [rsp+30h]
  0000000140014A5E: E8 5D FD FF FF     call        00000001400147C0
  0000000140014A63: 90                 nop
  0000000140014A64: 48 83 C4 28        add         rsp,28h
  0000000140014A68: C3                 ret
  0000000140014A69: CC CC CC CC CC CC CC CC CC CC CC CC CC CC CC CC  ŒŒŒŒŒŒŒŒŒŒŒŒŒŒŒŒ
  0000000140014A79: CC CC CC CC CC CC CC                             ŒŒŒŒŒŒŒ
__castguard_slow_path_check_user_handled:
  0000000140014A80: 4C 89 44 24 18     mov         qword ptr [rsp+18h],r8
  0000000140014A85: 48 89 54 24 10     mov         qword ptr [rsp+10h],rdx
  0000000140014A8A: 48 89 4C 24 08     mov         qword ptr [rsp+8],rcx
  0000000140014A8F: 48 83 EC 28        sub         rsp,28h
  0000000140014A93: 4C 8B 44 24 40     mov         r8,qword ptr [rsp+40h]
  0000000140014A98: 48 8B 54 24 38     mov         rdx,qword ptr [rsp+38h]
  0000000140014A9D: 48 8B 4C 24 30     mov         rcx,qword ptr [rsp+30h]
  0000000140014AA2: E8 39 00 00 00     call        0000000140014AE0
  0000000140014AA7: 85 C0              test        eax,eax
  0000000140014AA9: 74 19              je          0000000140014AC4
  0000000140014AAB: 48 8B 4C 24 30     mov         rcx,qword ptr [rsp+30h]
  0000000140014AB0: E8 DB FD FF FF     call        0000000140014890
  0000000140014AB5: 85 C0              test        eax,eax
  0000000140014AB7: 74 0B              je          0000000140014AC4
  0000000140014AB9: 48 8B 4C 24 30     mov         rcx,qword ptr [rsp+30h]
  0000000140014ABE: E8 6D FD FF FF     call        0000000140014830
  0000000140014AC3: 90                 nop
  0000000140014AC4: 48 83 C4 28        add         rsp,28h
  0000000140014AC8: C3                 ret
  0000000140014AC9: CC CC CC CC CC CC CC CC CC CC CC CC CC CC CC CC  ŒŒŒŒŒŒŒŒŒŒŒŒŒŒŒŒ
  0000000140014AD9: CC CC CC CC CC CC CC                             ŒŒŒŒŒŒŒ
__castguard_slow_path_compat_check:
  0000000140014AE0: 4C 89 44 24 18     mov         qword ptr [rsp+18h],r8
  0000000140014AE5: 48 89 54 24 10     mov         qword ptr [rsp+10h],rdx
  0000000140014AEA: 48 89 4C 24 08     mov         qword ptr [rsp+8],rcx
  0000000140014AEF: 48 83 EC 28        sub         rsp,28h
  0000000140014AF3: 48 8D 05 86 6F 00  lea         rax,[__CastGuardVftablesStart]
                    00
  0000000140014AFA: 48 05 80 00 00 00  add         rax,80h
  0000000140014B00: 48 89 44 24 08     mov         qword ptr [rsp+8],rax
  0000000140014B05: 48 8B 44 24 38     mov         rax,qword ptr [rsp+38h]
  0000000140014B0A: 48 8B 4C 24 08     mov         rcx,qword ptr [rsp+8]
  0000000140014B0F: 48 03 C8           add         rcx,rax
  0000000140014B12: 48 8B C1           mov         rax,rcx
  0000000140014B15: 48 89 44 24 10     mov         qword ptr [rsp+10h],rax
  0000000140014B1A: 48 8B 44 24 10     mov         rax,qword ptr [rsp+10h]
  0000000140014B1F: 48 8B 4C 24 30     mov         rcx,qword ptr [rsp+30h]
  0000000140014B24: 48 2B C8           sub         rcx,rax
  0000000140014B27: 48 8B C1           mov         rax,rcx
  0000000140014B2A: 48 3B 44 24 40     cmp         rax,qword ptr [rsp+40h]
  0000000140014B2F: 76 09              jbe         0000000140014B3A
  0000000140014B31: C7 04 24 01 00 00  mov         dword ptr [rsp],1
                    00
  0000000140014B38: EB 07              jmp         0000000140014B41
  0000000140014B3A: C7 04 24 00 00 00  mov         dword ptr [rsp],0
                    00
  0000000140014B41: 8B 04 24           mov         eax,dword ptr [rsp]
  0000000140014B44: 48 83 C4 28        add         rsp,28h
  0000000140014B48: C3                 ret
  0000000140014B49: CC CC CC CC CC CC CC CC CC CC CC CC CC CC CC CC  ŒŒŒŒŒŒŒŒŒŒŒŒŒŒŒŒ
  0000000140014B59: CC CC CC CC CC CC CC CC CC CC CC CC CC CC CC CC  ŒŒŒŒŒŒŒŒŒŒŒŒŒŒŒŒ
  0000000140014B69: CC CC CC CC CC CC CC                             ŒŒŒŒŒŒŒ
_guard_icall_checks_enforced:
  0000000140014B70: 48 83 EC 38        sub         rsp,38h
  0000000140014B74: 48 8D 0D 85 E4 00  lea         rcx,[__guard_check_icall_fptr]
                    00
  0000000140014B7B: E8 F7 C5 FF FF     call        @ILT+370(ReadPointerNoFence)
  0000000140014B80: 48 8D 0D B0 C4 FF  lea         rcx,[@ILT+50(_guard_check_icall_nop)]
                    FF
  0000000140014B87: 48 3B C1           cmp         rax,rcx
  0000000140014B8A: 74 0A              je          0000000140014B96
  0000000140014B8C: C7 44 24 20 01 00  mov         dword ptr [rsp+20h],1
                    00 00
  0000000140014B94: EB 08              jmp         0000000140014B9E
  0000000140014B96: C7 44 24 20 00 00  mov         dword ptr [rsp+20h],0
                    00 00
  0000000140014B9E: 8B 44 24 20        mov         eax,dword ptr [rsp+20h]
  0000000140014BA2: 48 83 C4 38        add         rsp,38h
  0000000140014BA6: C3                 ret
  0000000140014BA7: CC CC CC CC CC CC CC CC CC CC CC CC CC CC CC CC  ŒŒŒŒŒŒŒŒŒŒŒŒŒŒŒŒ
  0000000140014BB7: CC CC CC CC CC CC CC CC CC                       ŒŒŒŒŒŒŒŒŒ
_guard_rf_checks_enforced:
  0000000140014BC0: 33 C0              xor         eax,eax
  0000000140014BC2: C3                 ret
  0000000140014BC3: CC CC CC CC CC CC CC CC CC CC CC CC CC           ŒŒŒŒŒŒŒŒŒŒŒŒŒ
GetPdbDll:
  0000000140014BD0: 48 81 EC 58 04 00  sub         rsp,458h
                    00
  0000000140014BD7: 48 8B 05 22 84 00  mov         rax,qword ptr [__security_cookie]
                    00
  0000000140014BDE: 48 33 C4           xor         rax,rsp
  0000000140014BE1: 48 89 84 24 40 04  mov         qword ptr [rsp+440h],rax
                    00 00
  0000000140014BE9: 80 3D 11 8D 00 00  cmp         byte ptr [14001D901h],0
                    00
  0000000140014BF0: 0F 85 20 01 00 00  jne         0000000140014D16
  0000000140014BF6: C6 05 04 8D 00 00  mov         byte ptr [14001D901h],1
                    01
  0000000140014BFD: E8 8E 01 00 00     call        0000000140014D90
  0000000140014C02: 48 85 C0           test        rax,rax
  0000000140014C05: 0F 85 0D 01 00 00  jne         0000000140014D18
  0000000140014C0B: 48 8D 0D 46 69 00  lea         rcx,[14001B558h]
                    00
  0000000140014C12: E8 ED C4 FF FF     call        @ILT+255(__vcrt_GetModuleHandleW)
  0000000140014C17: 48 85 C0           test        rax,rax
  0000000140014C1A: 74 77              je          0000000140014C93
  0000000140014C1C: 41 B8 04 01 00 00  mov         r8d,104h
  0000000140014C22: 48 8D 94 24 30 02  lea         rdx,[rsp+230h]
                    00 00
  0000000140014C2A: 48 8B C8           mov         rcx,rax
  0000000140014C2D: E8 7F C7 FF FF     call        @ILT+940(__vcrt_GetModuleFileNameW)
  0000000140014C32: 85 C0              test        eax,eax
  0000000140014C34: 74 5D              je          0000000140014C93
  0000000140014C36: 41 B8 04 01 00 00  mov         r8d,104h
  0000000140014C3C: 48 8D 54 24 20     lea         rdx,[rsp+20h]
  0000000140014C41: 48 8D 8C 24 30 02  lea         rcx,[rsp+230h]
                    00 00
  0000000140014C49: E8 A2 04 00 00     call        00000001400150F0
  0000000140014C4E: 85 C0              test        eax,eax
  0000000140014C50: 74 41              je          0000000140014C93
  0000000140014C52: 33 D2              xor         edx,edx
  0000000140014C54: 48 8D 4C 24 20     lea         rcx,[rsp+20h]
  0000000140014C59: 41 B8 00 09 00 00  mov         r8d,900h
  0000000140014C5F: E8 A6 C3 FF FF     call        @ILT+5(__vcrt_LoadLibraryExW)
  0000000140014C64: 48 85 C0           test        rax,rax
  0000000140014C67: 0F 85 AB 00 00 00  jne         0000000140014D18
  0000000140014C6D: FF 15 05 C4 00 00  call        qword ptr [__imp_GetLastError]
  0000000140014C73: 83 F8 57           cmp         eax,57h
  0000000140014C76: 75 1B              jne         0000000140014C93
  0000000140014C78: 33 D2              xor         edx,edx
  0000000140014C7A: 48 8D 4C 24 20     lea         rcx,[rsp+20h]
  0000000140014C7F: 41 B8 08 00 00 00  mov         r8d,8
  0000000140014C85: E8 80 C3 FF FF     call        @ILT+5(__vcrt_LoadLibraryExW)
  0000000140014C8A: 48 85 C0           test        rax,rax
  0000000140014C8D: 0F 85 85 00 00 00  jne         0000000140014D18
  0000000140014C93: 33 D2              xor         edx,edx
  0000000140014C95: 48 8D 0D AC 6A 00  lea         rcx,[??_C@_1BC@JINFINNJ@?$AAM?$AAS?$AAP?$AAD?$AAB?$AA1?$AA4?$AA0@]
                    00
  0000000140014C9C: 41 B8 00 0A 00 00  mov         r8d,0A00h
  0000000140014CA2: E8 63 C3 FF FF     call        @ILT+5(__vcrt_LoadLibraryExW)
  0000000140014CA7: 48 85 C0           test        rax,rax
  0000000140014CAA: 75 6C              jne         0000000140014D18
  0000000140014CAC: FF 15 C6 C3 00 00  call        qword ptr [__imp_GetLastError]
  0000000140014CB2: 83 F8 57           cmp         eax,57h
  0000000140014CB5: 75 5F              jne         0000000140014D16
  0000000140014CB7: 41 B8 04 01 00 00  mov         r8d,104h
  0000000140014CBD: 48 8D 94 24 30 02  lea         rdx,[rsp+230h]
                    00 00
  0000000140014CC5: 33 C9              xor         ecx,ecx
  0000000140014CC7: E8 E5 C6 FF FF     call        @ILT+940(__vcrt_GetModuleFileNameW)
  0000000140014CCC: 85 C0              test        eax,eax
  0000000140014CCE: 74 46              je          0000000140014D16
  0000000140014CD0: 41 B8 04 01 00 00  mov         r8d,104h
  0000000140014CD6: 48 8D 54 24 20     lea         rdx,[rsp+20h]
  0000000140014CDB: 48 8D 8C 24 30 02  lea         rcx,[rsp+230h]
                    00 00
  0000000140014CE3: E8 08 04 00 00     call        00000001400150F0
  0000000140014CE8: 85 C0              test        eax,eax
  0000000140014CEA: 74 2A              je          0000000140014D16
  0000000140014CEC: 33 D2              xor         edx,edx
  0000000140014CEE: 48 8D 4C 24 20     lea         rcx,[rsp+20h]
  0000000140014CF3: 41 B8 08 00 00 00  mov         r8d,8
  0000000140014CF9: E8 0C C3 FF FF     call        @ILT+5(__vcrt_LoadLibraryExW)
  0000000140014CFE: 48 8B 8C 24 40 04  mov         rcx,qword ptr [rsp+440h]
                    00 00
  0000000140014D06: 48 33 CC           xor         rcx,rsp
  0000000140014D09: E8 AF C4 FF FF     call        @ILT+440(__security_check_cookie)
  0000000140014D0E: 48 81 C4 58 04 00  add         rsp,458h
                    00
  0000000140014D15: C3                 ret
  0000000140014D16: 33 C0              xor         eax,eax
  0000000140014D18: 48 8B 8C 24 40 04  mov         rcx,qword ptr [rsp+440h]
                    00 00
  0000000140014D20: 48 33 CC           xor         rcx,rsp
  0000000140014D23: E8 95 C4 FF FF     call        @ILT+440(__security_check_cookie)
  0000000140014D28: 48 81 C4 58 04 00  add         rsp,458h
                    00
  0000000140014D2F: C3                 ret
  0000000140014D30: CC CC CC CC CC CC CC CC CC CC CC CC CC CC CC CC  ŒŒŒŒŒŒŒŒŒŒŒŒŒŒŒŒ
  0000000140014D40: CC CC CC CC CC CC CC CC CC CC CC CC CC CC CC CC  ŒŒŒŒŒŒŒŒŒŒŒŒŒŒŒŒ
  0000000140014D50: CC CC CC CC CC CC CC CC CC CC CC CC CC CC CC CC  ŒŒŒŒŒŒŒŒŒŒŒŒŒŒŒŒ
  0000000140014D60: CC CC CC CC CC CC CC CC CC CC CC CC CC CC CC CC  ŒŒŒŒŒŒŒŒŒŒŒŒŒŒŒŒ
  0000000140014D70: CC CC CC CC CC CC CC CC CC CC CC CC CC CC CC CC  ŒŒŒŒŒŒŒŒŒŒŒŒŒŒŒŒ
  0000000140014D80: CC CC CC CC CC CC CC CC CC CC CC CC CC CC CC CC  ŒŒŒŒŒŒŒŒŒŒŒŒŒŒŒŒ
GetPdbDllFromInstallPath:
  0000000140014D90: 48 89 5C 24 08     mov         qword ptr [rsp+8],rbx
  0000000140014D95: 48 89 74 24 10     mov         qword ptr [rsp+10h],rsi
  0000000140014D9A: 48 89 7C 24 18     mov         qword ptr [rsp+18h],rdi
  0000000140014D9F: 4C 89 74 24 20     mov         qword ptr [rsp+20h],r14
  0000000140014DA4: 55                 push        rbp
  0000000140014DA5: 48 8D AC 24 90 FE  lea         rbp,[rsp-170h]
                    FF FF
  0000000140014DAD: 48 81 EC 70 02 00  sub         rsp,270h
                    00
  0000000140014DB4: 48 8B 05 45 82 00  mov         rax,qword ptr [__security_cookie]
                    00
  0000000140014DBB: 48 33 C4           xor         rax,rsp
  0000000140014DBE: 48 89 85 60 01 00  mov         qword ptr [rbp+160h],rax
                    00
  0000000140014DC5: 33 D2              xor         edx,edx
  0000000140014DC7: 48 8D 0D F2 67 00  lea         rcx,[??_C@_1EI@MLPKHBGE@?$AAa?$AAp?$AAi?$AA?9?$AAm?$AAs?$AA?9?$AAw?$AAi?$AAn?$AA?9?$AAc?$AAo?$AAr?$AAe@]
                    00
  0000000140014DCE: 41 B8 00 08 00 00  mov         r8d,800h
  0000000140014DD4: E8 31 C2 FF FF     call        @ILT+5(__vcrt_LoadLibraryExW)
  0000000140014DD9: 48 8B F8           mov         rdi,rax
  0000000140014DDC: 48 85 C0           test        rax,rax
  0000000140014DDF: 75 44              jne         0000000140014E25
  0000000140014DE1: 33 D2              xor         edx,edx
  0000000140014DE3: 48 8D 0D 2E 68 00  lea         rcx,[??_C@_1BK@JHLNAEJL@?$AAa?$AAd?$AAv?$AAa?$AAp?$AAi?$AA3?$AA2?$AA?4?$AAd?$AAl?$AAl@]
                    00
  0000000140014DEA: 41 B8 00 08 00 00  mov         r8d,800h
  0000000140014DF0: E8 15 C2 FF FF     call        @ILT+5(__vcrt_LoadLibraryExW)
  0000000140014DF5: 48 8B F8           mov         rdi,rax
  0000000140014DF8: 48 85 C0           test        rax,rax
  0000000140014DFB: 75 28              jne         0000000140014E25
  0000000140014DFD: FF 15 75 C2 00 00  call        qword ptr [__imp_GetLastError]
  0000000140014E03: 83 F8 57           cmp         eax,57h
  0000000140014E06: 0F 85 98 00 00 00  jne         0000000140014EA4
  0000000140014E0C: 45 33 C0           xor         r8d,r8d
  0000000140014E0F: 48 8D 0D 02 68 00  lea         rcx,[??_C@_1BK@JHLNAEJL@?$AAa?$AAd?$AAv?$AAa?$AAp?$AAi?$AA3?$AA2?$AA?4?$AAd?$AAl?$AAl@]
                    00
  0000000140014E16: 33 D2              xor         edx,edx
  0000000140014E18: E8 ED C1 FF FF     call        @ILT+5(__vcrt_LoadLibraryExW)
  0000000140014E1D: 48 8B F8           mov         rdi,rax
  0000000140014E20: 48 85 C0           test        rax,rax
  0000000140014E23: 74 7F              je          0000000140014EA4
  0000000140014E25: 48 8D 15 0C 68 00  lea         rdx,[??_C@_0O@COHOBMLB@RegOpenKeyExW@]
                    00
  0000000140014E2C: 48 8B CF           mov         rcx,rdi
  0000000140014E2F: FF 15 13 C2 00 00  call        qword ptr [__imp_GetProcAddress]
  0000000140014E35: 48 8B D8           mov         rbx,rax
  0000000140014E38: 48 85 C0           test        rax,rax
  0000000140014E3B: 74 67              je          0000000140014EA4
  0000000140014E3D: 48 8D 15 04 68 00  lea         rdx,[??_C@_0BB@GLNAEDBD@RegQueryValueExW@]
                    00
  0000000140014E44: 48 8B CF           mov         rcx,rdi
  0000000140014E47: FF 15 FB C1 00 00  call        qword ptr [__imp_GetProcAddress]
  0000000140014E4D: 48 8B F0           mov         rsi,rax
  0000000140014E50: 48 85 C0           test        rax,rax
  0000000140014E53: 74 4F              je          0000000140014EA4
  0000000140014E55: 48 8D 15 04 68 00  lea         rdx,[??_C@_0M@HLOHPNFA@RegCloseKey@]
                    00
  0000000140014E5C: 48 8B CF           mov         rcx,rdi
  0000000140014E5F: FF 15 E3 C1 00 00  call        qword ptr [__imp_GetProcAddress]
  0000000140014E65: 4C 8B F0           mov         r14,rax
  0000000140014E68: 48 85 C0           test        rax,rax
  0000000140014E6B: 74 37              je          0000000140014EA4
  0000000140014E6D: 48 8D 44 24 48     lea         rax,[rsp+48h]
  0000000140014E72: 41 B9 01 00 00 00  mov         r9d,1
  0000000140014E78: 48 89 44 24 20     mov         qword ptr [rsp+20h],rax
  0000000140014E7D: 48 8D 15 EC 67 00  lea         rdx,[??_C@_1HE@EBEAGLFB@?$AAS?$AAO?$AAF?$AAT?$AAW?$AAA?$AAR?$AAE?$AA?2?$AAW?$AAo?$AAw?$AA6?$AA4?$AA3@]
                    00
  0000000140014E84: 48 8B C3           mov         rax,rbx
  0000000140014E87: 45 33 C0           xor         r8d,r8d
  0000000140014E8A: 48 C7 C1 02 00 00  mov         rcx,0FFFFFFFF80000002h
                    80
  0000000140014E91: FF 15 89 E1 00 00  call        qword ptr [__guard_dispatch_icall_fptr]
  0000000140014E97: 85 C0              test        eax,eax
  0000000140014E99: 74 37              je          0000000140014ED2
  0000000140014E9B: 48 8B CF           mov         rcx,rdi
  0000000140014E9E: FF 15 AC C1 00 00  call        qword ptr [__imp_FreeLibrary]
  0000000140014EA4: 33 C0              xor         eax,eax
  0000000140014EA6: 48 8B 8D 60 01 00  mov         rcx,qword ptr [rbp+160h]
                    00
  0000000140014EAD: 48 33 CC           xor         rcx,rsp
  0000000140014EB0: E8 08 C3 FF FF     call        @ILT+440(__security_check_cookie)
  0000000140014EB5: 4C 8D 9C 24 70 02  lea         r11,[rsp+270h]
                    00 00
  0000000140014EBD: 49 8B 5B 10        mov         rbx,qword ptr [r11+10h]
  0000000140014EC1: 49 8B 73 18        mov         rsi,qword ptr [r11+18h]
  0000000140014EC5: 49 8B 7B 20        mov         rdi,qword ptr [r11+20h]
  0000000140014EC9: 4D 8B 73 28        mov         r14,qword ptr [r11+28h]
  0000000140014ECD: 49 8B E3           mov         rsp,r11
  0000000140014ED0: 5D                 pop         rbp
  0000000140014ED1: C3                 ret
  0000000140014ED2: 48 8B 4C 24 48     mov         rcx,qword ptr [rsp+48h]
  0000000140014ED7: 48 8D 44 24 40     lea         rax,[rsp+40h]
  0000000140014EDC: 48 89 44 24 28     mov         qword ptr [rsp+28h],rax
  0000000140014EE1: 4C 8D 4C 24 44     lea         r9,[rsp+44h]
  0000000140014EE6: 48 8D 44 24 50     lea         rax,[rsp+50h]
  0000000140014EEB: C7 44 24 40 08 02  mov         dword ptr [rsp+40h],208h
                    00 00
  0000000140014EF3: 48 89 44 24 20     mov         qword ptr [rsp+20h],rax
  0000000140014EF8: 48 8D 15 01 68 00  lea         rdx,[??_C@_1BG@EABPBLLF@?$AAP?$AAr?$AAo?$AAd?$AAu?$AAc?$AAt?$AAD?$AAi?$AAr@]
                    00
  0000000140014EFF: 48 8B C6           mov         rax,rsi
  0000000140014F02: 45 33 C0           xor         r8d,r8d
  0000000140014F05: FF 15 15 E1 00 00  call        qword ptr [__guard_dispatch_icall_fptr]
  0000000140014F0B: 48 8B 4C 24 48     mov         rcx,qword ptr [rsp+48h]
  0000000140014F10: 8B D8              mov         ebx,eax
  0000000140014F12: 49 8B C6           mov         rax,r14
  0000000140014F15: FF 15 05 E1 00 00  call        qword ptr [__guard_dispatch_icall_fptr]
  0000000140014F1B: 48 8B CF           mov         rcx,rdi
  0000000140014F1E: FF 15 2C C1 00 00  call        qword ptr [__imp_FreeLibrary]
  0000000140014F24: 85 DB              test        ebx,ebx
  0000000140014F26: 0F 85 78 FF FF FF  jne         0000000140014EA4
  0000000140014F2C: 83 7C 24 44 01     cmp         dword ptr [rsp+44h],1
  0000000140014F31: 0F 85 6D FF FF FF  jne         0000000140014EA4
  0000000140014F37: 8B 54 24 40        mov         edx,dword ptr [rsp+40h]
  0000000140014F3B: F6 C2 01           test        dl,1
  0000000140014F3E: 0F 85 60 FF FF FF  jne         0000000140014EA4
  0000000140014F44: D1 EA              shr         edx,1
  0000000140014F46: 44 8B CA           mov         r9d,edx
  0000000140014F49: 83 FA 02           cmp         edx,2
  0000000140014F4C: 0F 82 52 FF FF FF  jb          0000000140014EA4
  0000000140014F52: FF CA              dec         edx
  0000000140014F54: 4C 8D 44 24 50     lea         r8,[rsp+50h]
  0000000140014F59: 66 41 39 1C 50     cmp         word ptr [r8+rdx*2],bx
  0000000140014F5E: 4D 8D 04 50        lea         r8,[r8+rdx*2]
  0000000140014F62: 0F 85 3C FF FF FF  jne         0000000140014EA4
  0000000140014F68: 8D 42 FF           lea         eax,[rdx-1]
  0000000140014F6B: 41 BA 5C 00 00 00  mov         r10d,5Ch
  0000000140014F71: 66 44 39 54 44 50  cmp         word ptr [rsp+rax*2+50h],r10w
  0000000140014F77: 74 07              je          0000000140014F80
  0000000140014F79: 66 45 89 10        mov         word ptr [r8],r10w
  0000000140014F7D: 41 8B D1           mov         edx,r9d
  0000000140014F80: 8B C2              mov         eax,edx
  0000000140014F82: F7 D0              not         eax
  0000000140014F84: 83 F8 18           cmp         eax,18h
  0000000140014F87: 0F 82 17 FF FF FF  jb          0000000140014EA4
  0000000140014F8D: 8B CA              mov         ecx,edx
  0000000140014F8F: 48 8D 41 17        lea         rax,[rcx+17h]
  0000000140014F93: 48 3D 04 01 00 00  cmp         rax,104h
  0000000140014F99: 0F 87 05 FF FF FF  ja          0000000140014EA4
  0000000140014F9F: C7 44 4C 50 62 00  mov         dword ptr [rsp+rcx*2+50h],690062h
                    69 00
  0000000140014FA7: 33 C0              xor         eax,eax
  0000000140014FA9: C7 44 4C 54 6E 00  mov         dword ptr [rsp+rcx*2+54h],5C006Eh
                    5C 00
  0000000140014FB1: 33 D2              xor         edx,edx
  0000000140014FB3: C7 44 4C 58 61 00  mov         dword ptr [rsp+rcx*2+58h],6D0061h
                    6D 00
  0000000140014FBB: 41 B8 00 09 00 00  mov         r8d,900h
  0000000140014FC1: C7 44 4C 5C 64 00  mov         dword ptr [rsp+rcx*2+5Ch],360064h
                    36 00
  0000000140014FC9: C7 44 4C 60 34 00  mov         dword ptr [rsp+rcx*2+60h],5C0034h
                    5C 00
  0000000140014FD1: C7 44 4C 64 4D 00  mov         dword ptr [rsp+rcx*2+64h],53004Dh
                    53 00
  0000000140014FD9: C7 44 4C 68 50 00  mov         dword ptr [rsp+rcx*2+68h],440050h
                    44 00
  0000000140014FE1: C7 44 4C 6C 42 00  mov         dword ptr [rsp+rcx*2+6Ch],310042h
                    31 00
  0000000140014FE9: C7 44 4C 70 34 00  mov         dword ptr [rsp+rcx*2+70h],300034h
                    30 00
  0000000140014FF1: C7 44 4C 74 2E 00  mov         dword ptr [rsp+rcx*2+74h],44002Eh
                    44 00
  0000000140014FF9: C7 44 4C 78 4C 00  mov         dword ptr [rsp+rcx*2+78h],4C004Ch
                    4C 00
  0000000140015001: 66 89 44 4C 7C     mov         word ptr [rsp+rcx*2+7Ch],ax
  0000000140015006: 48 8D 4C 24 50     lea         rcx,[rsp+50h]
  000000014001500B: E8 FA BF FF FF     call        @ILT+5(__vcrt_LoadLibraryExW)
  0000000140015010: 48 8B D8           mov         rbx,rax
  0000000140015013: 48 85 C0           test        rax,rax
  0000000140015016: 75 20              jne         0000000140015038
  0000000140015018: FF 15 5A C0 00 00  call        qword ptr [__imp_GetLastError]
  000000014001501E: 83 F8 57           cmp         eax,57h
  0000000140015021: 75 15              jne         0000000140015038
  0000000140015023: 33 D2              xor         edx,edx
  0000000140015025: 48 8D 4C 24 50     lea         rcx,[rsp+50h]
  000000014001502A: 41 B8 08 00 00 00  mov         r8d,8
  0000000140015030: E8 D5 BF FF FF     call        @ILT+5(__vcrt_LoadLibraryExW)
  0000000140015035: 48 8B D8           mov         rbx,rax
  0000000140015038: 48 8B C3           mov         rax,rbx
  000000014001503B: E9 66 FE FF FF     jmp         0000000140014EA6
  0000000140015040: CC CC CC CC CC CC CC CC CC CC CC CC CC CC CC CC  ŒŒŒŒŒŒŒŒŒŒŒŒŒŒŒŒ
  0000000140015050: CC CC CC CC CC CC CC CC CC CC CC CC CC CC CC CC  ŒŒŒŒŒŒŒŒŒŒŒŒŒŒŒŒ
  0000000140015060: CC CC CC CC CC CC CC CC CC CC CC CC CC CC CC CC  ŒŒŒŒŒŒŒŒŒŒŒŒŒŒŒŒ
  0000000140015070: CC CC CC CC CC CC CC CC CC CC CC CC CC CC CC CC  ŒŒŒŒŒŒŒŒŒŒŒŒŒŒŒŒ
  0000000140015080: CC CC CC CC CC CC CC CC CC CC CC CC CC CC CC CC  ŒŒŒŒŒŒŒŒŒŒŒŒŒŒŒŒ
  0000000140015090: CC CC CC CC CC CC CC CC CC CC CC CC CC CC CC CC  ŒŒŒŒŒŒŒŒŒŒŒŒŒŒŒŒ
  00000001400150A0: CC CC CC CC CC CC CC CC CC CC CC CC CC CC CC CC  ŒŒŒŒŒŒŒŒŒŒŒŒŒŒŒŒ
  00000001400150B0: CC CC CC CC CC CC CC CC CC CC CC CC CC CC CC CC  ŒŒŒŒŒŒŒŒŒŒŒŒŒŒŒŒ
  00000001400150C0: CC CC CC CC CC CC CC CC CC CC CC CC CC CC CC CC  ŒŒŒŒŒŒŒŒŒŒŒŒŒŒŒŒ
  00000001400150D0: CC CC CC CC CC CC CC CC CC CC CC CC CC CC CC CC  ŒŒŒŒŒŒŒŒŒŒŒŒŒŒŒŒ
  00000001400150E0: CC CC CC CC CC CC CC CC CC CC CC CC CC CC CC CC  ŒŒŒŒŒŒŒŒŒŒŒŒŒŒŒŒ
GetPdbDllPathFromFilePath:
  00000001400150F0: 40 53              push        rbx
  00000001400150F2: 56                 push        rsi
  00000001400150F3: 57                 push        rdi
  00000001400150F4: 48 81 EC 70 06 00  sub         rsp,670h
                    00
  00000001400150FB: 48 8B 05 FE 7E 00  mov         rax,qword ptr [__security_cookie]
                    00
  0000000140015102: 48 33 C4           xor         rax,rsp
  0000000140015105: 48 89 84 24 60 06  mov         qword ptr [rsp+660h],rax
                    00 00
  000000014001510D: 48 C7 44 24 40 00  mov         qword ptr [rsp+40h],100h
                    01 00 00
  0000000140015116: 48 8D 44 24 60     lea         rax,[rsp+60h]
  000000014001511B: 48 89 44 24 38     mov         qword ptr [rsp+38h],rax
  0000000140015120: 4C 8D 8C 24 60 04  lea         r9,[rsp+460h]
                    00 00
  0000000140015128: 48 8D 84 24 60 02  lea         rax,[rsp+260h]
                    00 00
  0000000140015130: 48 C7 44 24 30 00  mov         qword ptr [rsp+30h],100h
                    01 00 00
  0000000140015139: 49 8B F0           mov         rsi,r8
  000000014001513C: 48 89 44 24 28     mov         qword ptr [rsp+28h],rax
  0000000140015141: 48 8B FA           mov         rdi,rdx
  0000000140015144: 48 C7 44 24 20 00  mov         qword ptr [rsp+20h],100h
                    01 00 00
  000000014001514D: 33 DB              xor         ebx,ebx
  000000014001514F: 41 B8 03 00 00 00  mov         r8d,3
  0000000140015155: 66 89 1A           mov         word ptr [rdx],bx
  0000000140015158: 48 8D 54 24 50     lea         rdx,[rsp+50h]
  000000014001515D: E8 36 C2 FF FF     call        @ILT+915(_wsplitpath_s)
  0000000140015162: 85 C0              test        eax,eax
  0000000140015164: 75 6F              jne         00000001400151D5
  0000000140015166: 4C 8D 05 C3 65 00  lea         r8,[14001B730h]
                    00
  000000014001516D: BA 09 00 00 00     mov         edx,9
  0000000140015172: 48 8D 8C 24 60 02  lea         rcx,[rsp+260h]
                    00 00
  000000014001517A: E8 07 C0 FF FF     call        @ILT+385(wcscpy_s)
  000000014001517F: 85 C0              test        eax,eax
  0000000140015181: 75 52              jne         00000001400151D5
  0000000140015183: 4C 8D 05 96 65 00  lea         r8,[14001B720h]
                    00
  000000014001518A: BA 04 00 00 00     mov         edx,4
  000000014001518F: 48 8D 4C 24 60     lea         rcx,[rsp+60h]
  0000000140015194: E8 ED BF FF FF     call        @ILT+385(wcscpy_s)
  0000000140015199: 85 C0              test        eax,eax
  000000014001519B: 75 38              jne         00000001400151D5
  000000014001519D: 48 8D 44 24 60     lea         rax,[rsp+60h]
  00000001400151A2: 48 8B D6           mov         rdx,rsi
  00000001400151A5: 48 89 44 24 28     mov         qword ptr [rsp+28h],rax
  00000001400151AA: 4C 8D 8C 24 60 04  lea         r9,[rsp+460h]
                    00 00
  00000001400151B2: 48 8D 84 24 60 02  lea         rax,[rsp+260h]
                    00 00
  00000001400151BA: 48 8B CF           mov         rcx,rdi
  00000001400151BD: 4C 8D 44 24 50     lea         r8,[rsp+50h]
  00000001400151C2: 48 89 44 24 20     mov         qword ptr [rsp+20h],rax
  00000001400151C7: E8 A2 BE FF FF     call        @ILT+105(_wmakepath_s)
  00000001400151CC: 85 C0              test        eax,eax
  00000001400151CE: 0F 94 C3           sete        bl
  00000001400151D1: 8B C3              mov         eax,ebx
  00000001400151D3: EB 02              jmp         00000001400151D7
  00000001400151D5: 33 C0              xor         eax,eax
  00000001400151D7: 48 8B 8C 24 60 06  mov         rcx,qword ptr [rsp+660h]
                    00 00
  00000001400151DF: 48 33 CC           xor         rcx,rsp
  00000001400151E2: E8 D6 BF FF FF     call        @ILT+440(__security_check_cookie)
  00000001400151E7: 48 81 C4 70 06 00  add         rsp,670h
                    00
  00000001400151EE: 5F                 pop         rdi
  00000001400151EF: 5E                 pop         rsi
  00000001400151F0: 5B                 pop         rbx
  00000001400151F1: C3                 ret
  00000001400151F2: CC CC CC CC CC CC CC CC CC CC CC CC CC CC CC CC  ŒŒŒŒŒŒŒŒŒŒŒŒŒŒŒŒ
  0000000140015202: CC CC CC CC CC CC CC CC CC CC CC CC CC CC CC CC  ŒŒŒŒŒŒŒŒŒŒŒŒŒŒŒŒ
  0000000140015212: CC CC CC CC CC CC CC CC CC CC CC CC CC CC CC CC  ŒŒŒŒŒŒŒŒŒŒŒŒŒŒŒŒ
  0000000140015222: CC CC CC CC CC CC CC CC CC CC CC CC CC CC CC CC  ŒŒŒŒŒŒŒŒŒŒŒŒŒŒŒŒ
  0000000140015232: CC CC CC CC CC CC CC CC CC CC CC CC CC CC        ŒŒŒŒŒŒŒŒŒŒŒŒŒŒ
?_RTC_GetSrcLine@@YAHPEAEPEA_WKPEAH1K@Z:
  0000000140015240: 44 89 44 24 18     mov         dword ptr [rsp+18h],r8d
  0000000140015245: 55                 push        rbp
  0000000140015246: 53                 push        rbx
  0000000140015247: 56                 push        rsi
  0000000140015248: 57                 push        rdi
  0000000140015249: 41 54              push        r12
  000000014001524B: 41 55              push        r13
  000000014001524D: 41 56              push        r14
  000000014001524F: 48 8D 6C 24 E9     lea         rbp,[rsp-17h]
  0000000140015254: 48 81 EC B0 00 00  sub         rsp,0B0h
                    00
  000000014001525B: 45 33 F6           xor         r14d,r14d
  000000014001525E: 48 8D 71 FF        lea         rsi,[rcx-1]
  0000000140015262: 45 89 31           mov         dword ptr [r9],r14d
  0000000140015265: 4C 8B EA           mov         r13,rdx
  0000000140015268: 66 44 89 32        mov         word ptr [rdx],r14w
  000000014001526C: 41 B8 30 00 00 00  mov         r8d,30h
  0000000140015272: 48 8D 55 E7        lea         rdx,[rbp-19h]
  0000000140015276: 48 8B CE           mov         rcx,rsi
  0000000140015279: 4D 8B E1           mov         r12,r9
  000000014001527C: FF 15 D6 BD 00 00  call        qword ptr [__imp_VirtualQuery]
  0000000140015282: 48 85 C0           test        rax,rax
  0000000140015285: 0F 84 67 03 00 00  je          00000001400155F2
  000000014001528B: 44 8B 45 7F        mov         r8d,dword ptr [rbp+7Fh]
  000000014001528F: 48 8B 55 77        mov         rdx,qword ptr [rbp+77h]
  0000000140015293: 48 8B 4D EF        mov         rcx,qword ptr [rbp-11h]
  0000000140015297: E8 15 C1 FF FF     call        @ILT+940(__vcrt_GetModuleFileNameW)
  000000014001529C: 85 C0              test        eax,eax
  000000014001529E: 0F 84 4E 03 00 00  je          00000001400155F2
  00000001400152A4: 48 8B 4D EF        mov         rcx,qword ptr [rbp-11h]
  00000001400152A8: B8 4D 5A 00 00     mov         eax,5A4Dh
  00000001400152AD: 66 39 01           cmp         word ptr [rcx],ax
  00000001400152B0: 0F 85 3C 03 00 00  jne         00000001400155F2
  00000001400152B6: 48 63 41 3C        movsxd      rax,dword ptr [rcx+3Ch]
  00000001400152BA: 85 C0              test        eax,eax
  00000001400152BC: 0F 8E 30 03 00 00  jle         00000001400155F2
  00000001400152C2: 48 03 C1           add         rax,rcx
  00000001400152C5: 81 38 50 45 00 00  cmp         dword ptr [rax],4550h
  00000001400152CB: 0F 85 21 03 00 00  jne         00000001400155F2
  00000001400152D1: 0F B7 50 14        movzx       edx,word ptr [rax+14h]
  00000001400152D5: 2B F1              sub         esi,ecx
  00000001400152D7: 44 0F B7 40 06     movzx       r8d,word ptr [rax+6]
  00000001400152DC: 48 03 D0           add         rdx,rax
  00000001400152DF: 41 8B FE           mov         edi,r14d
  00000001400152E2: 41 8B DE           mov         ebx,r14d
  00000001400152E5: 45 85 C0           test        r8d,r8d
  00000001400152E8: 74 25              je          000000014001530F
  00000001400152EA: 66 0F 1F 44 00 00  nop         word ptr [rax+rax]
  00000001400152F0: 8B C3              mov         eax,ebx
  00000001400152F2: 48 8D 0C 80        lea         rcx,[rax+rax*4]
  00000001400152F6: 8B 44 CA 24        mov         eax,dword ptr [rdx+rcx*8+24h]
  00000001400152FA: 3B F0              cmp         esi,eax
  00000001400152FC: 72 0A              jb          0000000140015308
  00000001400152FE: 8B FE              mov         edi,esi
  0000000140015300: 2B F8              sub         edi,eax
  0000000140015302: 3B 74 CA 20        cmp         esi,dword ptr [rdx+rcx*8+20h]
  0000000140015306: 72 07              jb          000000014001530F
  0000000140015308: FF C3              inc         ebx
  000000014001530A: 41 3B D8           cmp         ebx,r8d
  000000014001530D: 72 E1              jb          00000001400152F0
  000000014001530F: 41 3B D8           cmp         ebx,r8d
  0000000140015312: 0F 84 DA 02 00 00  je          00000001400155F2
  0000000140015318: FF C3              inc         ebx
  000000014001531A: 44 38 35 E1 85 00  cmp         byte ptr [14001D902h],r14b
                    00
  0000000140015321: 75 2B              jne         000000014001534E
  0000000140015323: 4C 39 35 CE 85 00  cmp         qword ptr [14001D8F8h],r14
                    00
  000000014001532A: 0F 85 C2 02 00 00  jne         00000001400155F2
  0000000140015330: E8 9B F8 FF FF     call        0000000140014BD0
  0000000140015335: 48 89 05 BC 85 00  mov         qword ptr [14001D8F8h],rax
                    00
  000000014001533C: 48 85 C0           test        rax,rax
  000000014001533F: 0F 84 AD 02 00 00  je          00000001400155F2
  0000000140015345: C6 05 B6 85 00 00  mov         byte ptr [14001D902h],1
                    01
  000000014001534C: EB 07              jmp         0000000140015355
  000000014001534E: 48 8B 05 A3 85 00  mov         rax,qword ptr [14001D8F8h]
                    00
  0000000140015355: 48 8D 15 04 64 00  lea         rdx,[??_C@_0BB@KCIACLNC@PDBOpenValidate5@]
                    00
  000000014001535C: 48 8B C8           mov         rcx,rax
  000000014001535F: FF 15 E3 BC 00 00  call        qword ptr [__imp_GetProcAddress]
  0000000140015365: 48 85 C0           test        rax,rax
  0000000140015368: 0F 84 84 02 00 00  je          00000001400155F2
  000000014001536E: 48 8D 4D CF        lea         rcx,[rbp-31h]
  0000000140015372: 45 33 C9           xor         r9d,r9d
  0000000140015375: 48 89 4C 24 38     mov         qword ptr [rsp+38h],rcx
  000000014001537A: 45 33 C0           xor         r8d,r8d
  000000014001537D: 4C 89 74 24 30     mov         qword ptr [rsp+30h],r14
  0000000140015382: 48 8D 4D DF        lea         rcx,[rbp-21h]
  0000000140015386: 4C 89 74 24 28     mov         qword ptr [rsp+28h],r14
  000000014001538B: 33 D2              xor         edx,edx
  000000014001538D: 48 89 4C 24 20     mov         qword ptr [rsp+20h],rcx
  0000000140015392: 48 8B 4D 77        mov         rcx,qword ptr [rbp+77h]
  0000000140015396: FF 15 84 DC 00 00  call        qword ptr [__guard_dispatch_icall_fptr]
  000000014001539C: 85 C0              test        eax,eax
  000000014001539E: 0F 84 4E 02 00 00  je          00000001400155F2
  00000001400153A4: 48 8B 4D CF        mov         rcx,qword ptr [rbp-31h]
  00000001400153A8: 49 8B F6           mov         rsi,r14
  00000001400153AB: 4C 89 75 B7        mov         qword ptr [rbp-49h],r14
  00000001400153AF: 48 8B 01           mov         rax,qword ptr [rcx]
  00000001400153B2: 48 8B 00           mov         rax,qword ptr [rax]
  00000001400153B5: FF 15 65 DC 00 00  call        qword ptr [__guard_dispatch_icall_fptr]
  00000001400153BB: 3D 41 91 32 01     cmp         eax,1329141h
  00000001400153C0: 0F 85 16 02 00 00  jne         00000001400155DC
  00000001400153C6: 48 8B 4D CF        mov         rcx,qword ptr [rbp-31h]
  00000001400153CA: 4C 8D 4D D7        lea         r9,[rbp-29h]
  00000001400153CE: 4C 8D 05 9F 63 00  lea         r8,[??_C@_01KDCPPGHE@r@]
                    00
  00000001400153D5: 33 D2              xor         edx,edx
  00000001400153D7: 48 8B 01           mov         rax,qword ptr [rcx]
  00000001400153DA: 48 8B 40 38        mov         rax,qword ptr [rax+38h]
  00000001400153DE: FF 15 3C DC 00 00  call        qword ptr [__guard_dispatch_icall_fptr]
  00000001400153E4: 85 C0              test        eax,eax
  00000001400153E6: 0F 84 F0 01 00 00  je          00000001400155DC
  00000001400153EC: 48 8B 4D D7        mov         rcx,qword ptr [rbp-29h]
  00000001400153F0: 4C 8D 4D C7        lea         r9,[rbp-39h]
  00000001400153F4: 4C 89 74 24 30     mov         qword ptr [rsp+30h],r14
  00000001400153F9: 44 8B C7           mov         r8d,edi
  00000001400153FC: 4C 89 74 24 28     mov         qword ptr [rsp+28h],r14
  0000000140015401: 0F B7 D3           movzx       edx,bx
  0000000140015404: 4C 89 74 24 20     mov         qword ptr [rsp+20h],r14
  0000000140015409: 48 8B 01           mov         rax,qword ptr [rcx]
  000000014001540C: 48 8B 40 40        mov         rax,qword ptr [rax+40h]
  0000000140015410: FF 15 0A DC 00 00  call        qword ptr [__guard_dispatch_icall_fptr]
  0000000140015416: 85 C0              test        eax,eax
  0000000140015418: 0F 84 AD 01 00 00  je          00000001400155CB
  000000014001541E: 48 8B 4D C7        mov         rcx,qword ptr [rbp-39h]
  0000000140015422: 48 8D 55 B7        lea         rdx,[rbp-49h]
  0000000140015426: 48 8B 01           mov         rax,qword ptr [rcx]
  0000000140015429: 48 8B 80 D0 00 00  mov         rax,qword ptr [rax+0D0h]
                    00
  0000000140015430: FF 15 EA DB 00 00  call        qword ptr [__guard_dispatch_icall_fptr]
  0000000140015436: 84 C0              test        al,al
  0000000140015438: 0F 84 79 01 00 00  je          00000001400155B7
  000000014001543E: 48 8B 4D B7        mov         rcx,qword ptr [rbp-49h]
  0000000140015442: 48 85 C9           test        rcx,rcx
  0000000140015445: 0F 84 6C 01 00 00  je          00000001400155B7
  000000014001544B: 48 8B 01           mov         rax,qword ptr [rcx]
  000000014001544E: 48 8B 40 10        mov         rax,qword ptr [rax+10h]
  0000000140015452: FF 15 C8 DB 00 00  call        qword ptr [__guard_dispatch_icall_fptr]
  0000000140015458: 85 C0              test        eax,eax
  000000014001545A: 0F 84 33 01 00 00  je          0000000140015593
  0000000140015460: 48 8B 4D B7        mov         rcx,qword ptr [rbp-49h]
  0000000140015464: 48 8D 55 5F        lea         rdx,[rbp+5Fh]
  0000000140015468: 4C 89 74 24 30     mov         qword ptr [rsp+30h],r14
  000000014001546D: 4C 8D 4D 57        lea         r9,[rbp+57h]
  0000000140015471: 48 89 54 24 28     mov         qword ptr [rsp+28h],rdx
  0000000140015476: 4C 8D 45 6F        lea         r8,[rbp+6Fh]
  000000014001547A: 48 8D 55 BF        lea         rdx,[rbp-41h]
  000000014001547E: 48 8B 01           mov         rax,qword ptr [rcx]
  0000000140015481: 48 89 54 24 20     mov         qword ptr [rsp+20h],rdx
  0000000140015486: 33 D2              xor         edx,edx
  0000000140015488: 48 8B 40 18        mov         rax,qword ptr [rax+18h]
  000000014001548C: FF 15 8E DB 00 00  call        qword ptr [__guard_dispatch_icall_fptr]
  0000000140015492: 84 C0              test        al,al
  0000000140015494: 0F 84 0D 01 00 00  je          00000001400155A7
  000000014001549A: 0F B7 45 57        movzx       eax,word ptr [rbp+57h]
  000000014001549E: 3B C3              cmp         eax,ebx
  00000001400154A0: 75 0E              jne         00000001400154B0
  00000001400154A2: 8B 4D 6F           mov         ecx,dword ptr [rbp+6Fh]
  00000001400154A5: 3B CF              cmp         ecx,edi
  00000001400154A7: 77 07              ja          00000001400154B0
  00000001400154A9: 03 4D BF           add         ecx,dword ptr [rbp-41h]
  00000001400154AC: 3B F9              cmp         edi,ecx
  00000001400154AE: 72 1A              jb          00000001400154CA
  00000001400154B0: 48 8B 4D B7        mov         rcx,qword ptr [rbp-49h]
  00000001400154B4: 48 8B 01           mov         rax,qword ptr [rcx]
  00000001400154B7: 48 8B 40 10        mov         rax,qword ptr [rax+10h]
  00000001400154BB: FF 15 5F DB 00 00  call        qword ptr [__guard_dispatch_icall_fptr]
  00000001400154C1: 85 C0              test        eax,eax
  00000001400154C3: 75 9B              jne         0000000140015460
  00000001400154C5: E9 C9 00 00 00     jmp         0000000140015593
  00000001400154CA: 8B 45 5F           mov         eax,dword ptr [rbp+5Fh]
  00000001400154CD: 85 C0              test        eax,eax
  00000001400154CF: 0F 84 D2 00 00 00  je          00000001400155A7
  00000001400154D5: 8B D8              mov         ebx,eax
  00000001400154D7: FF 15 83 BB 00 00  call        qword ptr [__imp_GetProcessHeap]
  00000001400154DD: 4C 8D 04 DD 00 00  lea         r8,[rbx*8]
                    00 00
  00000001400154E5: 33 D2              xor         edx,edx
  00000001400154E7: 48 8B C8           mov         rcx,rax
  00000001400154EA: FF 15 80 BB 00 00  call        qword ptr [__imp_HeapAlloc]
  00000001400154F0: 48 8B F0           mov         rsi,rax
  00000001400154F3: 48 85 C0           test        rax,rax
  00000001400154F6: 0F 84 AB 00 00 00  je          00000001400155A7
  00000001400154FC: 48 8B 4D B7        mov         rcx,qword ptr [rbp-49h]
  0000000140015500: 45 33 C9           xor         r9d,r9d
  0000000140015503: 48 89 74 24 30     mov         qword ptr [rsp+30h],rsi
  0000000140015508: 45 33 C0           xor         r8d,r8d
  000000014001550B: 48 8B 11           mov         rdx,qword ptr [rcx]
  000000014001550E: 48 8B 42 18        mov         rax,qword ptr [rdx+18h]
  0000000140015512: 48 8D 55 5F        lea         rdx,[rbp+5Fh]
  0000000140015516: 48 89 54 24 28     mov         qword ptr [rsp+28h],rdx
  000000014001551B: 48 8D 55 C3        lea         rdx,[rbp-3Dh]
  000000014001551F: 4C 89 74 24 20     mov         qword ptr [rsp+20h],r14
  0000000140015524: FF 15 F6 DA 00 00  call        qword ptr [__guard_dispatch_icall_fptr]
  000000014001552A: 84 C0              test        al,al
  000000014001552C: 74 65              je          0000000140015593
  000000014001552E: 2B 7D 6F           sub         edi,dword ptr [rbp+6Fh]
  0000000140015531: 3B 3E              cmp         edi,dword ptr [rsi]
  0000000140015533: 72 5E              jb          0000000140015593
  0000000140015535: 8B 55 5F           mov         edx,dword ptr [rbp+5Fh]
  0000000140015538: BB 01 00 00 00     mov         ebx,1
  000000014001553D: 8B CB              mov         ecx,ebx
  000000014001553F: 3B D3              cmp         edx,ebx
  0000000140015541: 76 0D              jbe         0000000140015550
  0000000140015543: 8B C1              mov         eax,ecx
  0000000140015545: 3B 3C C6           cmp         edi,dword ptr [rsi+rax*8]
  0000000140015548: 72 06              jb          0000000140015550
  000000014001554A: FF C1              inc         ecx
  000000014001554C: 3B CA              cmp         ecx,edx
  000000014001554E: 72 F3              jb          0000000140015543
  0000000140015550: 8B 55 C3           mov         edx,dword ptr [rbp-3Dh]
  0000000140015553: 8D 41 FF           lea         eax,[rcx-1]
  0000000140015556: 8B 44 C6 04        mov         eax,dword ptr [rsi+rax*8+4]
  000000014001555A: 4C 8D 4D 67        lea         r9,[rbp+67h]
  000000014001555E: 48 8B 4D C7        mov         rcx,qword ptr [rbp-39h]
  0000000140015562: 25 FF FF FF 00     and         eax,0FFFFFFh
  0000000140015567: 41 89 04 24        mov         dword ptr [r12],eax
  000000014001556B: 4D 8B C5           mov         r8,r13
  000000014001556E: 4C 89 74 24 30     mov         qword ptr [rsp+30h],r14
  0000000140015573: 4C 89 74 24 28     mov         qword ptr [rsp+28h],r14
  0000000140015578: 48 8B 01           mov         rax,qword ptr [rcx]
  000000014001557B: 4C 89 74 24 20     mov         qword ptr [rsp+20h],r14
  0000000140015580: 48 8B 80 E0 00 00  mov         rax,qword ptr [rax+0E0h]
                    00
  0000000140015587: FF 15 93 DA 00 00  call        qword ptr [__guard_dispatch_icall_fptr]
  000000014001558D: 84 C0              test        al,al
  000000014001558F: 44 0F 45 F3        cmovne      r14d,ebx
  0000000140015593: FF 15 C7 BA 00 00  call        qword ptr [__imp_GetProcessHeap]
  0000000140015599: 4C 8B C6           mov         r8,rsi
  000000014001559C: 33 D2              xor         edx,edx
  000000014001559E: 48 8B C8           mov         rcx,rax
  00000001400155A1: FF 15 C1 BA 00 00  call        qword ptr [__imp_HeapFree]
  00000001400155A7: 48 8B 4D B7        mov         rcx,qword ptr [rbp-49h]
  00000001400155AB: 48 8B 01           mov         rax,qword ptr [rcx]
  00000001400155AE: 48 8B 00           mov         rax,qword ptr [rax]
  00000001400155B1: FF 15 69 DA 00 00  call        qword ptr [__guard_dispatch_icall_fptr]
  00000001400155B7: 48 8B 4D C7        mov         rcx,qword ptr [rbp-39h]
  00000001400155BB: 48 8B 01           mov         rax,qword ptr [rcx]
  00000001400155BE: 48 8B 80 80 00 00  mov         rax,qword ptr [rax+80h]
                    00
  00000001400155C5: FF 15 55 DA 00 00  call        qword ptr [__guard_dispatch_icall_fptr]
  00000001400155CB: 48 8B 4D D7        mov         rcx,qword ptr [rbp-29h]
  00000001400155CF: 48 8B 11           mov         rdx,qword ptr [rcx]
  00000001400155D2: 48 8B 42 70        mov         rax,qword ptr [rdx+70h]
  00000001400155D6: FF 15 44 DA 00 00  call        qword ptr [__guard_dispatch_icall_fptr]
  00000001400155DC: 48 8B 4D CF        mov         rcx,qword ptr [rbp-31h]
  00000001400155E0: 48 8B 11           mov         rdx,qword ptr [rcx]
  00000001400155E3: 48 8B 42 58        mov         rax,qword ptr [rdx+58h]
  00000001400155E7: FF 15 33 DA 00 00  call        qword ptr [__guard_dispatch_icall_fptr]
  00000001400155ED: 41 8B C6           mov         eax,r14d
  00000001400155F0: EB 02              jmp         00000001400155F4
  00000001400155F2: 33 C0              xor         eax,eax
  00000001400155F4: 48 81 C4 B0 00 00  add         rsp,0B0h
                    00
  00000001400155FB: 41 5E              pop         r14
  00000001400155FD: 41 5D              pop         r13
  00000001400155FF: 41 5C              pop         r12
  0000000140015601: 5F                 pop         rdi
  0000000140015602: 5E                 pop         rsi
  0000000140015603: 5B                 pop         rbx
  0000000140015604: 5D                 pop         rbp
  0000000140015605: C3                 ret
  0000000140015606: CC CC CC CC CC CC CC CC CC CC CC CC CC CC CC CC  ŒŒŒŒŒŒŒŒŒŒŒŒŒŒŒŒ
  0000000140015616: CC CC CC CC CC CC CC CC CC CC CC CC CC CC CC CC  ŒŒŒŒŒŒŒŒŒŒŒŒŒŒŒŒ
  0000000140015626: CC CC CC CC CC CC CC CC CC CC CC CC CC CC CC CC  ŒŒŒŒŒŒŒŒŒŒŒŒŒŒŒŒ
  0000000140015636: CC CC CC CC CC CC CC CC CC CC CC CC CC CC CC CC  ŒŒŒŒŒŒŒŒŒŒŒŒŒŒŒŒ
  0000000140015646: CC CC CC CC CC CC CC CC CC CC CC CC CC CC CC CC  ŒŒŒŒŒŒŒŒŒŒŒŒŒŒŒŒ
  0000000140015656: CC CC CC CC CC CC CC CC CC CC CC CC CC CC CC CC  ŒŒŒŒŒŒŒŒŒŒŒŒŒŒŒŒ
  0000000140015666: CC CC CC CC CC CC CC CC CC CC CC CC CC CC CC CC  ŒŒŒŒŒŒŒŒŒŒŒŒŒŒŒŒ
  0000000140015676: CC CC CC CC CC CC CC CC CC CC CC CC CC CC CC CC  ŒŒŒŒŒŒŒŒŒŒŒŒŒŒŒŒ
  0000000140015686: CC CC CC CC CC CC CC CC CC CC CC CC CC CC CC CC  ŒŒŒŒŒŒŒŒŒŒŒŒŒŒŒŒ
  0000000140015696: CC CC CC CC CC CC CC CC CC CC CC CC CC CC CC CC  ŒŒŒŒŒŒŒŒŒŒŒŒŒŒŒŒ
  00000001400156A6: CC CC CC CC CC CC CC CC CC CC CC CC CC CC CC CC  ŒŒŒŒŒŒŒŒŒŒŒŒŒŒŒŒ
  00000001400156B6: CC CC CC CC CC CC CC CC CC CC CC CC CC CC CC CC  ŒŒŒŒŒŒŒŒŒŒŒŒŒŒŒŒ
  00000001400156C6: CC CC CC CC CC CC CC CC CC CC CC CC CC CC CC CC  ŒŒŒŒŒŒŒŒŒŒŒŒŒŒŒŒ
  00000001400156D6: CC CC CC CC CC CC CC CC CC CC CC CC CC CC CC CC  ŒŒŒŒŒŒŒŒŒŒŒŒŒŒŒŒ
  00000001400156E6: CC CC CC CC CC CC CC CC CC CC CC CC CC CC CC CC  ŒŒŒŒŒŒŒŒŒŒŒŒŒŒŒŒ
  00000001400156F6: CC CC CC CC CC CC CC CC CC CC                    ŒŒŒŒŒŒŒŒŒŒ
__isa_available_init:
  0000000140015700: 40 53              push        rbx
  0000000140015702: 48 83 EC 60        sub         rsp,60h
  0000000140015706: 48 8B 05 F3 78 00  mov         rax,qword ptr [__security_cookie]
                    00
  000000014001570D: 48 33 C4           xor         rax,rsp
  0000000140015710: 48 89 44 24 50     mov         qword ptr [rsp+50h],rax
  0000000140015715: 33 C0              xor         eax,eax
  0000000140015717: 33 C9              xor         ecx,ecx
  0000000140015719: 0F A2              cpuid
  000000014001571B: 4C 8D 44 24 40     lea         r8,[rsp+40h]
  0000000140015720: 41 89 00           mov         dword ptr [r8],eax
  0000000140015723: 41 89 58 04        mov         dword ptr [r8+4],ebx
  0000000140015727: 41 89 48 08        mov         dword ptr [r8+8],ecx
  000000014001572B: 41 89 50 0C        mov         dword ptr [r8+0Ch],edx
  000000014001572F: B8 04 00 00 00     mov         eax,4
  0000000140015734: 48 6B C0 00        imul        rax,rax,0
  0000000140015738: 8B 44 04 40        mov         eax,dword ptr [rsp+rax+40h]
  000000014001573C: 89 44 24 24        mov         dword ptr [rsp+24h],eax
  0000000140015740: B8 04 00 00 00     mov         eax,4
  0000000140015745: 48 6B C0 01        imul        rax,rax,1
  0000000140015749: 8B 44 04 40        mov         eax,dword ptr [rsp+rax+40h]
  000000014001574D: 35 47 65 6E 75     xor         eax,756E6547h
  0000000140015752: B9 04 00 00 00     mov         ecx,4
  0000000140015757: 48 6B C9 03        imul        rcx,rcx,3
  000000014001575B: 8B 4C 0C 40        mov         ecx,dword ptr [rsp+rcx+40h]
  000000014001575F: 81 F1 69 6E 65 49  xor         ecx,49656E69h
  0000000140015765: 0B C1              or          eax,ecx
  0000000140015767: B9 04 00 00 00     mov         ecx,4
  000000014001576C: 48 6B C9 02        imul        rcx,rcx,2
  0000000140015770: 8B 4C 0C 40        mov         ecx,dword ptr [rsp+rcx+40h]
  0000000140015774: 81 F1 6E 74 65 6C  xor         ecx,6C65746Eh
  000000014001577A: 0B C1              or          eax,ecx
  000000014001577C: 85 C0              test        eax,eax
  000000014001577E: 75 0A              jne         000000014001578A
  0000000140015780: C7 44 24 1C 01 00  mov         dword ptr [rsp+1Ch],1
                    00 00
  0000000140015788: EB 08              jmp         0000000140015792
  000000014001578A: C7 44 24 1C 00 00  mov         dword ptr [rsp+1Ch],0
                    00 00
  0000000140015792: 0F B6 44 24 1C     movzx       eax,byte ptr [rsp+1Ch]
  0000000140015797: 88 04 24           mov         byte ptr [rsp],al
  000000014001579A: B8 04 00 00 00     mov         eax,4
  000000014001579F: 48 6B C0 01        imul        rax,rax,1
  00000001400157A3: 8B 44 04 40        mov         eax,dword ptr [rsp+rax+40h]
  00000001400157A7: 35 41 75 74 68     xor         eax,68747541h
  00000001400157AC: B9 04 00 00 00     mov         ecx,4
  00000001400157B1: 48 6B C9 03        imul        rcx,rcx,3
  00000001400157B5: 8B 4C 0C 40        mov         ecx,dword ptr [rsp+rcx+40h]
  00000001400157B9: 81 F1 65 6E 74 69  xor         ecx,69746E65h
  00000001400157BF: 0B C1              or          eax,ecx
  00000001400157C1: B9 04 00 00 00     mov         ecx,4
  00000001400157C6: 48 6B C9 02        imul        rcx,rcx,2
  00000001400157CA: 8B 4C 0C 40        mov         ecx,dword ptr [rsp+rcx+40h]
  00000001400157CE: 81 F1 63 41 4D 44  xor         ecx,444D4163h
  00000001400157D4: 0B C1              or          eax,ecx
  00000001400157D6: 85 C0              test        eax,eax
  00000001400157D8: 75 0A              jne         00000001400157E4
  00000001400157DA: C7 44 24 20 01 00  mov         dword ptr [rsp+20h],1
                    00 00
  00000001400157E2: EB 08              jmp         00000001400157EC
  00000001400157E4: C7 44 24 20 00 00  mov         dword ptr [rsp+20h],0
                    00 00
  00000001400157EC: 0F B6 44 24 20     movzx       eax,byte ptr [rsp+20h]
  00000001400157F1: 88 44 24 0C        mov         byte ptr [rsp+0Ch],al
  00000001400157F5: B8 01 00 00 00     mov         eax,1
  00000001400157FA: 33 C9              xor         ecx,ecx
  00000001400157FC: 0F A2              cpuid
  00000001400157FE: 4C 8D 44 24 40     lea         r8,[rsp+40h]
  0000000140015803: 41 89 00           mov         dword ptr [r8],eax
  0000000140015806: 41 89 58 04        mov         dword ptr [r8+4],ebx
  000000014001580A: 41 89 48 08        mov         dword ptr [r8+8],ecx
  000000014001580E: 41 89 50 0C        mov         dword ptr [r8+0Ch],edx
  0000000140015812: B8 04 00 00 00     mov         eax,4
  0000000140015817: 48 6B C0 00        imul        rax,rax,0
  000000014001581B: 8B 44 04 40        mov         eax,dword ptr [rsp+rax+40h]
  000000014001581F: 89 44 24 04        mov         dword ptr [rsp+4],eax
  0000000140015823: 0F B6 04 24        movzx       eax,byte ptr [rsp]
  0000000140015827: 85 C0              test        eax,eax
  0000000140015829: 0F 84 85 00 00 00  je          00000001400158B4
  000000014001582F: 48 C7 05 4E 78 00  mov         qword ptr [__memset_fast_string_threshold],8000h
                    00 00 80 00 00
  000000014001583A: 48 C7 05 4B 78 00  mov         qword ptr [__memset_nt_threshold],0FFFFFFFFFFFFFFFFh
                    00 FF FF FF FF
  0000000140015845: 8B 44 24 04        mov         eax,dword ptr [rsp+4]
  0000000140015849: 25 F0 3F FF 0F     and         eax,0FFF3FF0h
  000000014001584E: 3D C0 06 01 00     cmp         eax,106C0h
  0000000140015853: 74 50              je          00000001400158A5
  0000000140015855: 8B 44 24 04        mov         eax,dword ptr [rsp+4]
  0000000140015859: 25 F0 3F FF 0F     and         eax,0FFF3FF0h
  000000014001585E: 3D 60 06 02 00     cmp         eax,20660h
  0000000140015863: 74 40              je          00000001400158A5
  0000000140015865: 8B 44 24 04        mov         eax,dword ptr [rsp+4]
  0000000140015869: 25 F0 3F FF 0F     and         eax,0FFF3FF0h
  000000014001586E: 3D 70 06 02 00     cmp         eax,20670h
  0000000140015873: 74 30              je          00000001400158A5
  0000000140015875: 8B 44 24 04        mov         eax,dword ptr [rsp+4]
  0000000140015879: 25 F0 3F FF 0F     and         eax,0FFF3FF0h
  000000014001587E: 3D 50 06 03 00     cmp         eax,30650h
  0000000140015883: 74 20              je          00000001400158A5
  0000000140015885: 8B 44 24 04        mov         eax,dword ptr [rsp+4]
  0000000140015889: 25 F0 3F FF 0F     and         eax,0FFF3FF0h
  000000014001588E: 3D 60 06 03 00     cmp         eax,30660h
  0000000140015893: 74 10              je          00000001400158A5
  0000000140015895: 8B 44 24 04        mov         eax,dword ptr [rsp+4]
  0000000140015899: 25 F0 3F FF 0F     and         eax,0FFF3FF0h
  000000014001589E: 3D 70 06 03 00     cmp         eax,30670h
  00000001400158A3: 75 0F              jne         00000001400158B4
  00000001400158A5: 8B 05 5D 80 00 00  mov         eax,dword ptr [__favor]
  00000001400158AB: 83 C8 01           or          eax,1
  00000001400158AE: 89 05 54 80 00 00  mov         dword ptr [__favor],eax
  00000001400158B4: B8 04 00 00 00     mov         eax,4
  00000001400158B9: 48 6B C0 02        imul        rax,rax,2
  00000001400158BD: 8B 44 04 40        mov         eax,dword ptr [rsp+rax+40h]
  00000001400158C1: 89 44 24 10        mov         dword ptr [rsp+10h],eax
  00000001400158C5: C7 44 24 08 00 00  mov         dword ptr [rsp+8],0
                    00 00
  00000001400158CD: C7 44 24 28 00 00  mov         dword ptr [rsp+28h],0
                    00 00
  00000001400158D5: C7 44 24 18 00 00  mov         dword ptr [rsp+18h],0
                    00 00
  00000001400158DD: C7 44 24 14 00 00  mov         dword ptr [rsp+14h],0
                    00 00
  00000001400158E5: 83 7C 24 24 07     cmp         dword ptr [rsp+24h],7
  00000001400158EA: 0F 8C D1 00 00 00  jl          00000001400159C1
  00000001400158F0: B8 07 00 00 00     mov         eax,7
  00000001400158F5: 33 C9              xor         ecx,ecx
  00000001400158F7: 0F A2              cpuid
  00000001400158F9: 4C 8D 44 24 40     lea         r8,[rsp+40h]
  00000001400158FE: 41 89 00           mov         dword ptr [r8],eax
  0000000140015901: 41 89 58 04        mov         dword ptr [r8+4],ebx
  0000000140015905: 41 89 48 08        mov         dword ptr [r8+8],ecx
  0000000140015909: 41 89 50 0C        mov         dword ptr [r8+0Ch],edx
  000000014001590D: B8 04 00 00 00     mov         eax,4
  0000000140015912: 48 6B C0 01        imul        rax,rax,1
  0000000140015916: 8B 44 04 40        mov         eax,dword ptr [rsp+rax+40h]
  000000014001591A: 89 44 24 08        mov         dword ptr [rsp+8],eax
  000000014001591E: B8 04 00 00 00     mov         eax,4
  0000000140015923: 48 6B C0 03        imul        rax,rax,3
  0000000140015927: 8B 44 04 40        mov         eax,dword ptr [rsp+rax+40h]
  000000014001592B: 89 44 24 28        mov         dword ptr [rsp+28h],eax
  000000014001592F: 8B 44 24 08        mov         eax,dword ptr [rsp+8]
  0000000140015933: 25 00 02 00 00     and         eax,200h
  0000000140015938: 85 C0              test        eax,eax
  000000014001593A: 74 0F              je          000000014001594B
  000000014001593C: 8B 05 C6 7F 00 00  mov         eax,dword ptr [__favor]
  0000000140015942: 83 C8 02           or          eax,2
  0000000140015945: 89 05 BD 7F 00 00  mov         dword ptr [__favor],eax
  000000014001594B: B8 04 00 00 00     mov         eax,4
  0000000140015950: 48 6B C0 00        imul        rax,rax,0
  0000000140015954: 83 7C 04 40 01     cmp         dword ptr [rsp+rax+40h],1
  0000000140015959: 7C 31              jl          000000014001598C
  000000014001595B: B8 07 00 00 00     mov         eax,7
  0000000140015960: B9 01 00 00 00     mov         ecx,1
  0000000140015965: 0F A2              cpuid
  0000000140015967: 4C 8D 44 24 40     lea         r8,[rsp+40h]
  000000014001596C: 41 89 00           mov         dword ptr [r8],eax
  000000014001596F: 41 89 58 04        mov         dword ptr [r8+4],ebx
  0000000140015973: 41 89 48 08        mov         dword ptr [r8+8],ecx
  0000000140015977: 41 89 50 0C        mov         dword ptr [r8+0Ch],edx
  000000014001597B: B8 04 00 00 00     mov         eax,4
  0000000140015980: 48 6B C0 03        imul        rax,rax,3
  0000000140015984: 8B 44 04 40        mov         eax,dword ptr [rsp+rax+40h]
  0000000140015988: 89 44 24 18        mov         dword ptr [rsp+18h],eax
  000000014001598C: 83 7C 24 24 24     cmp         dword ptr [rsp+24h],24h
  0000000140015991: 7C 2E              jl          00000001400159C1
  0000000140015993: B8 24 00 00 00     mov         eax,24h
  0000000140015998: 33 C9              xor         ecx,ecx
  000000014001599A: 0F A2              cpuid
  000000014001599C: 4C 8D 44 24 40     lea         r8,[rsp+40h]
  00000001400159A1: 41 89 00           mov         dword ptr [r8],eax
  00000001400159A4: 41 89 58 04        mov         dword ptr [r8+4],ebx
  00000001400159A8: 41 89 48 08        mov         dword ptr [r8+8],ecx
  00000001400159AC: 41 89 50 0C        mov         dword ptr [r8+0Ch],edx
  00000001400159B0: B8 04 00 00 00     mov         eax,4
  00000001400159B5: 48 6B C0 01        imul        rax,rax,1
  00000001400159B9: 8B 44 04 40        mov         eax,dword ptr [rsp+rax+40h]
  00000001400159BD: 89 44 24 14        mov         dword ptr [rsp+14h],eax
  00000001400159C1: C7 05 B5 76 00 00  mov         dword ptr [__isa_available],1
                    01 00 00 00
  00000001400159CB: C7 05 AF 76 00 00  mov         dword ptr [__isa_enabled],2
                    02 00 00 00
  00000001400159D5: 48 8B 05 9C 76 00  mov         rax,qword ptr [__isa_inverted]
                    00
  00000001400159DC: 48 83 E0 FE        and         rax,0FFFFFFFFFFFFFFFEh
  00000001400159E0: 48 89 05 91 76 00  mov         qword ptr [__isa_inverted],rax
                    00
  00000001400159E7: 8B 44 24 10        mov         eax,dword ptr [rsp+10h]
  00000001400159EB: 25 00 00 10 00     and         eax,100000h
  00000001400159F0: 85 C0              test        eax,eax
  00000001400159F2: 74 2B              je          0000000140015A1F
  00000001400159F4: C7 05 82 76 00 00  mov         dword ptr [__isa_available],2
                    02 00 00 00
  00000001400159FE: 8B 05 80 76 00 00  mov         eax,dword ptr [__isa_enabled]
  0000000140015A04: 83 C8 04           or          eax,4
  0000000140015A07: 89 05 77 76 00 00  mov         dword ptr [__isa_enabled],eax
  0000000140015A0D: 48 8B 05 64 76 00  mov         rax,qword ptr [__isa_inverted]
                    00
  0000000140015A14: 48 83 E0 EF        and         rax,0FFFFFFFFFFFFFFEFh
  0000000140015A18: 48 89 05 59 76 00  mov         qword ptr [__isa_inverted],rax
                    00
  0000000140015A1F: 8B 44 24 10        mov         eax,dword ptr [rsp+10h]
  0000000140015A23: 25 00 00 00 08     and         eax,8000000h
  0000000140015A28: 85 C0              test        eax,eax
  0000000140015A2A: 0F 84 A5 01 00 00  je          0000000140015BD5
  0000000140015A30: 33 C9              xor         ecx,ecx
  0000000140015A32: 0F 01 D0           xgetbv
  0000000140015A35: 48 C1 E2 20        shl         rdx,20h
  0000000140015A39: 48 0B D0           or          rdx,rax
  0000000140015A3C: 48 8B C2           mov         rax,rdx
  0000000140015A3F: 48 89 44 24 30     mov         qword ptr [rsp+30h],rax
  0000000140015A44: 8B 44 24 10        mov         eax,dword ptr [rsp+10h]
  0000000140015A48: 25 00 00 00 10     and         eax,10000000h
  0000000140015A4D: 85 C0              test        eax,eax
  0000000140015A4F: 0F 84 4D 01 00 00  je          0000000140015BA2
  0000000140015A55: 48 8B 44 24 30     mov         rax,qword ptr [rsp+30h]
  0000000140015A5A: 48 83 E0 06        and         rax,6
  0000000140015A5E: 48 83 F8 06        cmp         rax,6
  0000000140015A62: 0F 85 3A 01 00 00  jne         0000000140015BA2
  0000000140015A68: C7 05 0E 76 00 00  mov         dword ptr [__isa_available],3
                    03 00 00 00
  0000000140015A72: 8B 05 0C 76 00 00  mov         eax,dword ptr [__isa_enabled]
  0000000140015A78: 83 C8 08           or          eax,8
  0000000140015A7B: 89 05 03 76 00 00  mov         dword ptr [__isa_enabled],eax
  0000000140015A81: 8B 44 24 08        mov         eax,dword ptr [rsp+8]
  0000000140015A85: 83 E0 20           and         eax,20h
  0000000140015A88: 85 C0              test        eax,eax
  0000000140015A8A: 74 79              je          0000000140015B05
  0000000140015A8C: C7 05 EA 75 00 00  mov         dword ptr [__isa_available],5
                    05 00 00 00
  0000000140015A96: 8B 05 E8 75 00 00  mov         eax,dword ptr [__isa_enabled]
  0000000140015A9C: 83 C8 20           or          eax,20h
  0000000140015A9F: 89 05 DF 75 00 00  mov         dword ptr [__isa_enabled],eax
  0000000140015AA5: 48 8B 05 CC 75 00  mov         rax,qword ptr [__isa_inverted]
                    00
  0000000140015AAC: 48 83 E0 FD        and         rax,0FFFFFFFFFFFFFFFDh
  0000000140015AB0: 48 89 05 C1 75 00  mov         qword ptr [__isa_inverted],rax
                    00
  0000000140015AB7: 8B 44 24 08        mov         eax,dword ptr [rsp+8]
  0000000140015ABB: 25 00 00 03 D0     and         eax,0D0030000h
  0000000140015AC0: 3D 00 00 03 D0     cmp         eax,0D0030000h
  0000000140015AC5: 75 3E              jne         0000000140015B05
  0000000140015AC7: 48 8B 44 24 30     mov         rax,qword ptr [rsp+30h]
  0000000140015ACC: 48 25 E0 00 00 00  and         rax,0E0h
  0000000140015AD2: 48 3D E0 00 00 00  cmp         rax,0E0h
  0000000140015AD8: 75 2B              jne         0000000140015B05
  0000000140015ADA: C7 05 9C 75 00 00  mov         dword ptr [__isa_available],6
                    06 00 00 00
  0000000140015AE4: 8B 05 9A 75 00 00  mov         eax,dword ptr [__isa_enabled]
  0000000140015AEA: 83 C8 40           or          eax,40h
  0000000140015AED: 89 05 91 75 00 00  mov         dword ptr [__isa_enabled],eax
  0000000140015AF3: 48 8B 05 7E 75 00  mov         rax,qword ptr [__isa_inverted]
                    00
  0000000140015AFA: 48 83 E0 DB        and         rax,0FFFFFFFFFFFFFFDBh
  0000000140015AFE: 48 89 05 73 75 00  mov         qword ptr [__isa_inverted],rax
                    00
  0000000140015B05: 8B 44 24 28        mov         eax,dword ptr [rsp+28h]
  0000000140015B09: 25 00 00 80 00     and         eax,800000h
  0000000140015B0E: 85 C0              test        eax,eax
  0000000140015B10: 74 13              je          0000000140015B25
  0000000140015B12: 48 8B 05 5F 75 00  mov         rax,qword ptr [__isa_inverted]
                    00
  0000000140015B19: 48 0F BA F0 18     btr         rax,18h
  0000000140015B1E: 48 89 05 53 75 00  mov         qword ptr [__isa_inverted],rax
                    00
  0000000140015B25: 8B 44 24 18        mov         eax,dword ptr [rsp+18h]
  0000000140015B29: 25 00 00 08 00     and         eax,80000h
  0000000140015B2E: 85 C0              test        eax,eax
  0000000140015B30: 74 70              je          0000000140015BA2
  0000000140015B32: 48 8B 44 24 30     mov         rax,qword ptr [rsp+30h]
  0000000140015B37: 48 25 E0 00 00 00  and         rax,0E0h
  0000000140015B3D: 48 3D E0 00 00 00  cmp         rax,0E0h
  0000000140015B43: 75 5D              jne         0000000140015BA2
  0000000140015B45: 8B 44 24 14        mov         eax,dword ptr [rsp+14h]
  0000000140015B49: 25 FF 00 04 00     and         eax,400FFh
  0000000140015B4E: 89 05 B0 7D 00 00  mov         dword ptr [__avx10_version],eax
  0000000140015B54: 8B 44 24 14        mov         eax,dword ptr [rsp+14h]
  0000000140015B58: C1 E8 10           shr         eax,10h
  0000000140015B5B: 83 E0 07           and         eax,7
  0000000140015B5E: 8B C0              mov         eax,eax
  0000000140015B60: 48 89 44 24 38     mov         qword ptr [rsp+38h],rax
  0000000140015B65: 48 8B 44 24 38     mov         rax,qword ptr [rsp+38h]
  0000000140015B6A: 48 0D 28 00 00 01  or          rax,1000028h
  0000000140015B70: 48 F7 D0           not         rax
  0000000140015B73: 48 8B 0D FE 74 00  mov         rcx,qword ptr [__isa_inverted]
                    00
  0000000140015B7A: 48 23 C8           and         rcx,rax
  0000000140015B7D: 48 8B C1           mov         rax,rcx
  0000000140015B80: 48 89 05 F1 74 00  mov         qword ptr [__isa_inverted],rax
                    00
  0000000140015B87: 83 3D 76 7D 00 00  cmp         dword ptr [__avx10_version],1
                    01
  0000000140015B8E: 76 12              jbe         0000000140015BA2
  0000000140015B90: 48 8B 05 E1 74 00  mov         rax,qword ptr [__isa_inverted]
                    00
  0000000140015B97: 48 83 E0 BF        and         rax,0FFFFFFFFFFFFFFBFh
  0000000140015B9B: 48 89 05 D6 74 00  mov         qword ptr [__isa_inverted],rax
                    00
  0000000140015BA2: 8B 44 24 18        mov         eax,dword ptr [rsp+18h]
  0000000140015BA6: 25 00 00 20 00     and         eax,200000h
  0000000140015BAB: 85 C0              test        eax,eax
  0000000140015BAD: 74 26              je          0000000140015BD5
  0000000140015BAF: 48 8B 44 24 30     mov         rax,qword ptr [rsp+30h]
  0000000140015BB4: 48 25 00 00 08 00  and         rax,80000h
  0000000140015BBA: 48 3D 00 00 08 00  cmp         rax,80000h
  0000000140015BC0: 75 13              jne         0000000140015BD5
  0000000140015BC2: 48 8B 05 AF 74 00  mov         rax,qword ptr [__isa_inverted]
                    00
  0000000140015BC9: 48 0F BA F0 07     btr         rax,7
  0000000140015BCE: 48 89 05 A3 74 00  mov         qword ptr [__isa_inverted],rax
                    00
  0000000140015BD5: 33 C0              xor         eax,eax
  0000000140015BD7: 48 8B 4C 24 50     mov         rcx,qword ptr [rsp+50h]
  0000000140015BDC: 48 33 CC           xor         rcx,rsp
  0000000140015BDF: E8 D9 B5 FF FF     call        @ILT+440(__security_check_cookie)
  0000000140015BE4: 48 83 C4 60        add         rsp,60h
  0000000140015BE8: 5B                 pop         rbx
  0000000140015BE9: C3                 ret
  0000000140015BEA: CC CC CC CC CC CC CC CC CC CC CC CC CC CC CC CC  ŒŒŒŒŒŒŒŒŒŒŒŒŒŒŒŒ
  0000000140015BFA: CC CC CC CC CC CC CC CC CC CC CC CC CC CC CC CC  ŒŒŒŒŒŒŒŒŒŒŒŒŒŒŒŒ
  0000000140015C0A: CC CC CC CC CC CC CC CC CC CC CC CC CC CC CC CC  ŒŒŒŒŒŒŒŒŒŒŒŒŒŒŒŒ
  0000000140015C1A: CC CC CC CC CC CC CC CC CC CC CC CC CC CC CC CC  ŒŒŒŒŒŒŒŒŒŒŒŒŒŒŒŒ
  0000000140015C2A: CC CC CC CC CC CC CC CC CC CC CC CC CC CC CC CC  ŒŒŒŒŒŒŒŒŒŒŒŒŒŒŒŒ
  0000000140015C3A: CC CC CC CC CC CC CC CC CC CC CC CC CC CC CC CC  ŒŒŒŒŒŒŒŒŒŒŒŒŒŒŒŒ
  0000000140015C4A: CC CC CC CC CC CC CC CC CC CC CC CC CC CC CC CC  ŒŒŒŒŒŒŒŒŒŒŒŒŒŒŒŒ
  0000000140015C5A: CC CC CC CC CC CC CC CC CC CC CC CC CC CC CC CC  ŒŒŒŒŒŒŒŒŒŒŒŒŒŒŒŒ
  0000000140015C6A: CC CC CC CC CC CC CC CC CC CC CC CC CC CC CC CC  ŒŒŒŒŒŒŒŒŒŒŒŒŒŒŒŒ
  0000000140015C7A: CC CC CC CC CC CC CC CC CC CC CC CC CC CC CC CC  ŒŒŒŒŒŒŒŒŒŒŒŒŒŒŒŒ
  0000000140015C8A: CC CC CC CC CC CC CC CC CC CC CC CC CC CC CC CC  ŒŒŒŒŒŒŒŒŒŒŒŒŒŒŒŒ
  0000000140015C9A: CC CC CC CC CC CC CC CC CC CC CC CC CC CC CC CC  ŒŒŒŒŒŒŒŒŒŒŒŒŒŒŒŒ
  0000000140015CAA: CC CC CC CC CC CC CC CC CC CC CC CC CC CC CC CC  ŒŒŒŒŒŒŒŒŒŒŒŒŒŒŒŒ
  0000000140015CBA: CC CC CC CC CC CC CC CC CC CC CC CC CC CC CC CC  ŒŒŒŒŒŒŒŒŒŒŒŒŒŒŒŒ
  0000000140015CCA: CC CC CC CC CC CC CC CC CC CC CC CC CC CC CC CC  ŒŒŒŒŒŒŒŒŒŒŒŒŒŒŒŒ
  0000000140015CDA: CC CC CC CC CC CC CC CC CC CC CC CC CC CC CC CC  ŒŒŒŒŒŒŒŒŒŒŒŒŒŒŒŒ
  0000000140015CEA: CC CC CC CC CC CC CC CC CC CC CC CC CC CC CC CC  ŒŒŒŒŒŒŒŒŒŒŒŒŒŒŒŒ
  0000000140015CFA: CC CC CC CC CC CC CC CC CC CC CC CC CC CC CC CC  ŒŒŒŒŒŒŒŒŒŒŒŒŒŒŒŒ
  0000000140015D0A: CC CC CC CC CC CC CC CC CC CC CC CC CC CC CC CC  ŒŒŒŒŒŒŒŒŒŒŒŒŒŒŒŒ
  0000000140015D1A: CC CC CC CC CC CC CC CC CC CC CC CC CC CC CC CC  ŒŒŒŒŒŒŒŒŒŒŒŒŒŒŒŒ
  0000000140015D2A: CC CC CC CC CC CC                                ŒŒŒŒŒŒ
__scrt_is_ucrt_dll_in_use:
  0000000140015D30: 48 83 EC 18        sub         rsp,18h
  0000000140015D34: 83 3D 65 73 00 00  cmp         dword ptr [__scrt_ucrt_dll_is_in_use],0
                    00
  0000000140015D3B: 74 09              je          0000000140015D46
  0000000140015D3D: C7 04 24 01 00 00  mov         dword ptr [rsp],1
                    00
  0000000140015D44: EB 07              jmp         0000000140015D4D
  0000000140015D46: C7 04 24 00 00 00  mov         dword ptr [rsp],0
                    00
  0000000140015D4D: 8B 04 24           mov         eax,dword ptr [rsp]
  0000000140015D50: 48 83 C4 18        add         rsp,18h
  0000000140015D54: C3                 ret
  0000000140015D55: CC CC CC CC CC CC CC CC CC CC CC                 ŒŒŒŒŒŒŒŒŒŒŒ
__C_specific_handler:
  0000000140015D60: FF 25 22 B4 00 00  jmp         qword ptr [__imp___C_specific_handler]
__C_specific_handler_noexcept:
  0000000140015D66: FF 25 14 B4 00 00  jmp         qword ptr [__imp___C_specific_handler_noexcept]
__std_type_info_destroy_list:
  0000000140015D6C: FF 25 06 B4 00 00  jmp         qword ptr [__imp___std_type_info_destroy_list]
__current_exception:
  0000000140015D72: FF 25 F8 B3 00 00  jmp         qword ptr [__imp___current_exception]
__current_exception_context:
  0000000140015D78: FF 25 EA B3 00 00  jmp         qword ptr [__imp___current_exception_context]
__vcrt_GetModuleFileNameW:
  0000000140015D7E: FF 25 DC B3 00 00  jmp         qword ptr [__imp___vcrt_GetModuleFileNameW]
__vcrt_GetModuleHandleW:
  0000000140015D84: FF 25 CE B3 00 00  jmp         qword ptr [__imp___vcrt_GetModuleHandleW]
__vcrt_LoadLibraryExW:
  0000000140015D8A: FF 25 C0 B3 00 00  jmp         qword ptr [__imp___vcrt_LoadLibraryExW]
__acrt_iob_func:
  0000000140015D90: FF 25 7A B5 00 00  jmp         qword ptr [__imp___acrt_iob_func]
__stdio_common_vfprintf:
  0000000140015D96: FF 25 6C B5 00 00  jmp         qword ptr [__imp___stdio_common_vfprintf]
__stdio_common_vfscanf:
  0000000140015D9C: FF 25 5E B5 00 00  jmp         qword ptr [__imp___stdio_common_vfscanf]
_CrtDbgReport:
  0000000140015DA2: FF 25 50 B5 00 00  jmp         qword ptr [__imp__CrtDbgReport]
_CrtDbgReportW:
  0000000140015DA8: FF 25 42 B5 00 00  jmp         qword ptr [__imp__CrtDbgReportW]
_seh_filter_exe:
  0000000140015DAE: FF 25 34 B5 00 00  jmp         qword ptr [__imp__seh_filter_exe]
_set_app_type:
  0000000140015DB4: FF 25 26 B5 00 00  jmp         qword ptr [__imp__set_app_type]
__setusermatherr:
  0000000140015DBA: FF 25 18 B5 00 00  jmp         qword ptr [__imp___setusermatherr]
_configure_narrow_argv:
  0000000140015DC0: FF 25 0A B5 00 00  jmp         qword ptr [__imp__configure_narrow_argv]
_initialize_narrow_environment:
  0000000140015DC6: FF 25 FC B4 00 00  jmp         qword ptr [__imp__initialize_narrow_environment]
_get_initial_narrow_environment:
  0000000140015DCC: FF 25 EE B4 00 00  jmp         qword ptr [__imp__get_initial_narrow_environment]
_initterm:
  0000000140015DD2: FF 25 E0 B4 00 00  jmp         qword ptr [__imp__initterm]
_initterm_e:
  0000000140015DD8: FF 25 D2 B4 00 00  jmp         qword ptr [__imp__initterm_e]
exit:
  0000000140015DDE: FF 25 C4 B4 00 00  jmp         qword ptr [__imp_exit]
_exit:
  0000000140015DE4: FF 25 B6 B4 00 00  jmp         qword ptr [__imp__exit]
_set_fmode:
  0000000140015DEA: FF 25 A8 B4 00 00  jmp         qword ptr [__imp__set_fmode]
__p___argc:
  0000000140015DF0: FF 25 9A B4 00 00  jmp         qword ptr [__imp___p___argc]
__p___argv:
  0000000140015DF6: FF 25 8C B4 00 00  jmp         qword ptr [__imp___p___argv]
_cexit:
  0000000140015DFC: FF 25 7E B4 00 00  jmp         qword ptr [__imp__cexit]
_c_exit:
  0000000140015E02: FF 25 70 B4 00 00  jmp         qword ptr [__imp__c_exit]
_register_thread_local_exe_atexit_callback:
  0000000140015E08: FF 25 62 B4 00 00  jmp         qword ptr [__imp__register_thread_local_exe_atexit_callback]
_configthreadlocale:
  0000000140015E0E: FF 25 54 B4 00 00  jmp         qword ptr [__imp__configthreadlocale]
_set_new_mode:
  0000000140015E14: FF 25 46 B4 00 00  jmp         qword ptr [__imp__set_new_mode]
__p__commode:
  0000000140015E1A: FF 25 38 B4 00 00  jmp         qword ptr [__imp___p__commode]
strcpy_s:
  0000000140015E20: FF 25 2A B4 00 00  jmp         qword ptr [__imp_strcpy_s]
strcat_s:
  0000000140015E26: FF 25 1C B4 00 00  jmp         qword ptr [__imp_strcat_s]
__stdio_common_vsprintf_s:
  0000000140015E2C: FF 25 C6 B3 00 00  jmp         qword ptr [__imp___stdio_common_vsprintf_s]
_seh_filter_dll:
  0000000140015E32: FF 25 08 B4 00 00  jmp         qword ptr [__imp__seh_filter_dll]
_initialize_onexit_table:
  0000000140015E38: FF 25 DA B4 00 00  jmp         qword ptr [__imp__initialize_onexit_table]
_register_onexit_function:
  0000000140015E3E: FF 25 BC B3 00 00  jmp         qword ptr [__imp__register_onexit_function]
_execute_onexit_table:
  0000000140015E44: FF 25 BE B3 00 00  jmp         qword ptr [__imp__execute_onexit_table]
_crt_atexit:
  0000000140015E4A: FF 25 C0 B3 00 00  jmp         qword ptr [__imp__crt_atexit]
_crt_at_quick_exit:
  0000000140015E50: FF 25 C2 B3 00 00  jmp         qword ptr [__imp__crt_at_quick_exit]
terminate:
  0000000140015E56: FF 25 C4 B3 00 00  jmp         qword ptr [__imp_terminate]
_wmakepath_s:
  0000000140015E5C: FF 25 C6 B3 00 00  jmp         qword ptr [__imp__wmakepath_s]
_wsplitpath_s:
  0000000140015E62: FF 25 C8 B3 00 00  jmp         qword ptr [__imp__wsplitpath_s]
wcscpy_s:
  0000000140015E68: FF 25 CA B3 00 00  jmp         qword ptr [__imp_wcscpy_s]
GetCurrentThreadId:
  0000000140015E6E: FF 25 14 B2 00 00  jmp         qword ptr [__imp_GetCurrentThreadId]
IsDebuggerPresent:
  0000000140015E74: FF 25 8E B1 00 00  jmp         qword ptr [__imp_IsDebuggerPresent]
RaiseException:
  0000000140015E7A: FF 25 90 B1 00 00  jmp         qword ptr [__imp_RaiseException]
MultiByteToWideChar:
  0000000140015E80: FF 25 92 B1 00 00  jmp         qword ptr [__imp_MultiByteToWideChar]
WideCharToMultiByte:
  0000000140015E86: FF 25 94 B1 00 00  jmp         qword ptr [__imp_WideCharToMultiByte]
RtlCaptureContext:
  0000000140015E8C: FF 25 96 B1 00 00  jmp         qword ptr [__imp_RtlCaptureContext]
RtlLookupFunctionEntry:
  0000000140015E92: FF 25 98 B1 00 00  jmp         qword ptr [__imp_RtlLookupFunctionEntry]
RtlVirtualUnwind:
  0000000140015E98: FF 25 9A B1 00 00  jmp         qword ptr [__imp_RtlVirtualUnwind]
UnhandledExceptionFilter:
  0000000140015E9E: FF 25 9C B1 00 00  jmp         qword ptr [__imp_UnhandledExceptionFilter]
SetUnhandledExceptionFilter:
  0000000140015EA4: FF 25 1E B2 00 00  jmp         qword ptr [__imp_SetUnhandledExceptionFilter]
GetCurrentProcess:
  0000000140015EAA: FF 25 10 B2 00 00  jmp         qword ptr [__imp_GetCurrentProcess]
TerminateProcess:
  0000000140015EB0: FF 25 02 B2 00 00  jmp         qword ptr [__imp_TerminateProcess]
IsProcessorFeaturePresent:
  0000000140015EB6: FF 25 F4 B1 00 00  jmp         qword ptr [__imp_IsProcessorFeaturePresent]
QueryPerformanceCounter:
  0000000140015EBC: FF 25 E6 B1 00 00  jmp         qword ptr [__imp_QueryPerformanceCounter]
GetCurrentProcessId:
  0000000140015EC2: FF 25 D8 B1 00 00  jmp         qword ptr [__imp_GetCurrentProcessId]
GetSystemTimeAsFileTime:
  0000000140015EC8: FF 25 CA B1 00 00  jmp         qword ptr [__imp_GetSystemTimeAsFileTime]
InitializeSListHead:
  0000000140015ECE: FF 25 BC B1 00 00  jmp         qword ptr [__imp_InitializeSListHead]
GetStartupInfoW:
  0000000140015ED4: FF 25 26 B1 00 00  jmp         qword ptr [__imp_GetStartupInfoW]
GetModuleHandleW:
  0000000140015EDA: FF 25 A0 B1 00 00  jmp         qword ptr [__imp_GetModuleHandleW]
GetLastError:
  0000000140015EE0: FF 25 92 B1 00 00  jmp         qword ptr [__imp_GetLastError]
HeapAlloc:
  0000000140015EE6: FF 25 84 B1 00 00  jmp         qword ptr [__imp_HeapAlloc]
HeapFree:
  0000000140015EEC: FF 25 76 B1 00 00  jmp         qword ptr [__imp_HeapFree]
GetProcessHeap:
  0000000140015EF2: FF 25 68 B1 00 00  jmp         qword ptr [__imp_GetProcessHeap]
VirtualQuery:
  0000000140015EF8: FF 25 5A B1 00 00  jmp         qword ptr [__imp_VirtualQuery]
FreeLibrary:
  0000000140015EFE: FF 25 4C B1 00 00  jmp         qword ptr [__imp_FreeLibrary]
GetProcAddress:
  0000000140015F04: FF 25 3E B1 00 00  jmp         qword ptr [__imp_GetProcAddress]
  0000000140015F0A: CC CC CC CC CC CC                                ŒŒŒŒŒŒ
__acrt_initialize:
  0000000140015F10: B0 01              mov         al,1
  0000000140015F12: C3                 ret
  0000000140015F13: CC CC CC CC CC CC CC CC CC CC CC CC CC           ŒŒŒŒŒŒŒŒŒŒŒŒŒ
__acrt_thread_attach:
  0000000140015F20: B0 01              mov         al,1
  0000000140015F22: C3                 ret
  0000000140015F23: CC CC CC CC CC CC CC CC CC CC CC CC CC           ŒŒŒŒŒŒŒŒŒŒŒŒŒ
__acrt_thread_detach:
  0000000140015F30: B0 01              mov         al,1
  0000000140015F32: C3                 ret
  0000000140015F33: CC CC CC CC CC CC CC CC CC CC CC CC CC           ŒŒŒŒŒŒŒŒŒŒŒŒŒ
__acrt_uninitialize:
  0000000140015F40: 88 4C 24 08        mov         byte ptr [rsp+8],cl
  0000000140015F44: B0 01              mov         al,1
  0000000140015F46: C3                 ret
  0000000140015F47: CC CC CC CC CC CC CC CC CC                       ŒŒŒŒŒŒŒŒŒ
__acrt_uninitialize_critical:
  0000000140015F50: 88 4C 24 08        mov         byte ptr [rsp+8],cl
  0000000140015F54: B0 01              mov         al,1
  0000000140015F56: C3                 ret
  0000000140015F57: CC CC CC CC CC CC CC CC CC                       ŒŒŒŒŒŒŒŒŒ
__scrt_stub_for_is_c_termination_complete:
  0000000140015F60: 33 C0              xor         eax,eax
  0000000140015F62: C3                 ret
memcpy:
  0000000140015F63: FF 25 27 B2 00 00  jmp         qword ptr [__imp_memcpy]
  0000000140015F69: CC CC CC CC CC CC CC CC CC CC CC CC CC CC CC CC  ŒŒŒŒŒŒŒŒŒŒŒŒŒŒŒŒ
  0000000140015F79: CC CC CC CC CC CC CC CC CC CC CC CC CC CC CC CC  ŒŒŒŒŒŒŒŒŒŒŒŒŒŒŒŒ
  0000000140015F89: CC CC CC CC CC CC CC CC CC CC CC CC CC CC CC CC  ŒŒŒŒŒŒŒŒŒŒŒŒŒŒŒŒ
  0000000140015F99: CC CC CC CC CC CC CC CC CC CC CC CC CC CC CC CC  ŒŒŒŒŒŒŒŒŒŒŒŒŒŒŒŒ
  0000000140015FA9: CC CC CC CC CC CC CC CC CC CC CC CC CC CC CC CC  ŒŒŒŒŒŒŒŒŒŒŒŒŒŒŒŒ
  0000000140015FB9: CC CC CC CC CC CC CC CC CC CC CC CC CC CC CC CC  ŒŒŒŒŒŒŒŒŒŒŒŒŒŒŒŒ
  0000000140015FC9: CC CC CC CC CC CC CC CC CC CC CC CC CC CC CC CC  ŒŒŒŒŒŒŒŒŒŒŒŒŒŒŒŒ
  0000000140015FD9: CC CC CC CC CC CC CC CC CC CC CC CC CC CC CC CC  ŒŒŒŒŒŒŒŒŒŒŒŒŒŒŒŒ
  0000000140015FE9: CC CC CC CC CC CC CC CC CC CC CC CC CC CC CC CC  ŒŒŒŒŒŒŒŒŒŒŒŒŒŒŒŒ
  0000000140015FF9: CC CC CC CC CC CC CC CC CC CC CC CC CC CC CC CC  ŒŒŒŒŒŒŒŒŒŒŒŒŒŒŒŒ
  0000000140016009: CC CC CC CC CC CC CC CC CC CC CC CC CC CC CC CC  ŒŒŒŒŒŒŒŒŒŒŒŒŒŒŒŒ
  0000000140016019: CC CC CC CC CC CC CC CC CC CC CC CC CC CC CC CC  ŒŒŒŒŒŒŒŒŒŒŒŒŒŒŒŒ
  0000000140016029: CC CC CC CC CC CC CC CC CC CC CC CC CC CC CC CC  ŒŒŒŒŒŒŒŒŒŒŒŒŒŒŒŒ
  0000000140016039: CC CC CC CC CC CC CC CC CC CC CC CC CC CC CC CC  ŒŒŒŒŒŒŒŒŒŒŒŒŒŒŒŒ
  0000000140016049: CC CC CC CC CC CC CC CC CC CC CC CC CC CC CC CC  ŒŒŒŒŒŒŒŒŒŒŒŒŒŒŒŒ
  0000000140016059: CC CC CC CC CC CC CC CC CC CC CC CC CC CC CC CC  ŒŒŒŒŒŒŒŒŒŒŒŒŒŒŒŒ
  0000000140016069: CC CC CC CC CC CC CC CC CC CC CC CC CC CC CC CC  ŒŒŒŒŒŒŒŒŒŒŒŒŒŒŒŒ
  0000000140016079: CC CC CC CC CC CC CC CC CC CC CC CC CC CC CC CC  ŒŒŒŒŒŒŒŒŒŒŒŒŒŒŒŒ
  0000000140016089: CC CC CC CC CC CC CC CC CC CC CC CC CC CC CC CC  ŒŒŒŒŒŒŒŒŒŒŒŒŒŒŒŒ
  0000000140016099: CC CC CC CC CC CC CC CC CC CC CC CC CC CC CC CC  ŒŒŒŒŒŒŒŒŒŒŒŒŒŒŒŒ
  00000001400160A9: CC CC CC CC CC CC CC CC CC CC CC CC CC CC CC CC  ŒŒŒŒŒŒŒŒŒŒŒŒŒŒŒŒ
  00000001400160B9: CC CC CC CC CC CC CC CC CC CC CC CC CC CC CC CC  ŒŒŒŒŒŒŒŒŒŒŒŒŒŒŒŒ
  00000001400160C9: CC CC CC CC CC CC CC CC CC CC CC CC CC CC CC CC  ŒŒŒŒŒŒŒŒŒŒŒŒŒŒŒŒ
  00000001400160D9: CC CC CC CC CC CC CC CC CC CC CC CC CC CC CC CC  ŒŒŒŒŒŒŒŒŒŒŒŒŒŒŒŒ
  00000001400160E9: CC CC CC CC CC CC CC CC CC CC CC CC CC CC CC CC  ŒŒŒŒŒŒŒŒŒŒŒŒŒŒŒŒ
  00000001400160F9: CC CC CC CC CC CC CC CC CC CC CC CC CC CC CC CC  ŒŒŒŒŒŒŒŒŒŒŒŒŒŒŒŒ
  0000000140016109: CC CC CC CC CC CC CC CC CC CC CC CC CC CC CC CC  ŒŒŒŒŒŒŒŒŒŒŒŒŒŒŒŒ
  0000000140016119: CC CC CC CC CC CC CC CC CC CC CC CC CC CC CC CC  ŒŒŒŒŒŒŒŒŒŒŒŒŒŒŒŒ
  0000000140016129: CC CC CC CC CC CC CC CC CC CC CC CC CC CC CC CC  ŒŒŒŒŒŒŒŒŒŒŒŒŒŒŒŒ
  0000000140016139: CC CC CC CC CC CC CC CC CC CC CC CC CC CC CC CC  ŒŒŒŒŒŒŒŒŒŒŒŒŒŒŒŒ
  0000000140016149: CC CC CC CC CC CC CC CC CC CC CC CC CC CC CC CC  ŒŒŒŒŒŒŒŒŒŒŒŒŒŒŒŒ
  0000000140016159: CC CC CC CC CC CC CC CC CC CC CC CC CC CC CC CC  ŒŒŒŒŒŒŒŒŒŒŒŒŒŒŒŒ
  0000000140016169: CC CC CC CC CC CC CC CC CC CC CC CC CC CC CC CC  ŒŒŒŒŒŒŒŒŒŒŒŒŒŒŒŒ
  0000000140016179: CC CC CC CC CC CC CC CC CC CC CC CC CC CC CC CC  ŒŒŒŒŒŒŒŒŒŒŒŒŒŒŒŒ
  0000000140016189: CC CC CC CC CC CC CC CC CC CC CC CC CC CC CC CC  ŒŒŒŒŒŒŒŒŒŒŒŒŒŒŒŒ
  0000000140016199: CC CC CC CC CC CC CC CC CC CC CC CC CC CC CC CC  ŒŒŒŒŒŒŒŒŒŒŒŒŒŒŒŒ
  00000001400161A9: CC CC CC CC CC CC CC CC CC CC CC CC CC CC CC CC  ŒŒŒŒŒŒŒŒŒŒŒŒŒŒŒŒ
  00000001400161B9: CC CC CC CC CC CC CC CC CC CC CC CC CC CC CC CC  ŒŒŒŒŒŒŒŒŒŒŒŒŒŒŒŒ
  00000001400161C9: CC CC CC CC CC CC CC CC CC CC CC CC CC CC CC CC  ŒŒŒŒŒŒŒŒŒŒŒŒŒŒŒŒ
  00000001400161D9: CC CC CC CC CC CC CC CC CC CC CC CC CC CC CC CC  ŒŒŒŒŒŒŒŒŒŒŒŒŒŒŒŒ
  00000001400161E9: CC CC CC CC CC CC CC CC CC CC CC CC CC CC CC CC  ŒŒŒŒŒŒŒŒŒŒŒŒŒŒŒŒ
  00000001400161F9: CC CC CC CC CC CC CC CC CC CC CC CC CC CC CC CC  ŒŒŒŒŒŒŒŒŒŒŒŒŒŒŒŒ
  0000000140016209: CC CC CC CC CC CC CC CC CC CC CC CC CC CC CC CC  ŒŒŒŒŒŒŒŒŒŒŒŒŒŒŒŒ
  0000000140016219: CC CC CC CC CC CC CC CC CC CC CC CC CC CC CC CC  ŒŒŒŒŒŒŒŒŒŒŒŒŒŒŒŒ
  0000000140016229: CC CC CC CC CC CC CC CC CC CC CC CC CC CC CC CC  ŒŒŒŒŒŒŒŒŒŒŒŒŒŒŒŒ
  0000000140016239: CC CC CC CC CC CC CC CC CC CC CC CC CC CC CC CC  ŒŒŒŒŒŒŒŒŒŒŒŒŒŒŒŒ
  0000000140016249: CC CC CC CC CC CC CC CC CC CC CC CC CC CC CC CC  ŒŒŒŒŒŒŒŒŒŒŒŒŒŒŒŒ
  0000000140016259: CC CC CC CC CC CC CC CC CC CC CC CC CC CC CC CC  ŒŒŒŒŒŒŒŒŒŒŒŒŒŒŒŒ
  0000000140016269: CC CC CC CC CC CC CC CC CC CC CC CC CC CC CC CC  ŒŒŒŒŒŒŒŒŒŒŒŒŒŒŒŒ
  0000000140016279: CC CC CC CC CC CC CC CC CC CC CC CC CC CC CC CC  ŒŒŒŒŒŒŒŒŒŒŒŒŒŒŒŒ
  0000000140016289: CC CC CC CC CC CC CC CC CC CC CC CC CC CC CC CC  ŒŒŒŒŒŒŒŒŒŒŒŒŒŒŒŒ
  0000000140016299: CC CC CC CC CC CC CC CC CC CC CC CC CC CC CC CC  ŒŒŒŒŒŒŒŒŒŒŒŒŒŒŒŒ
  00000001400162A9: CC CC CC CC CC CC CC CC CC CC CC CC CC CC CC CC  ŒŒŒŒŒŒŒŒŒŒŒŒŒŒŒŒ
  00000001400162B9: CC CC CC CC CC CC CC CC CC CC CC CC CC CC CC CC  ŒŒŒŒŒŒŒŒŒŒŒŒŒŒŒŒ
  00000001400162C9: CC CC CC CC CC CC CC CC CC CC CC CC CC CC CC CC  ŒŒŒŒŒŒŒŒŒŒŒŒŒŒŒŒ
  00000001400162D9: CC CC CC CC CC CC CC CC CC CC CC CC CC CC CC CC  ŒŒŒŒŒŒŒŒŒŒŒŒŒŒŒŒ
  00000001400162E9: CC CC CC CC CC CC CC CC CC CC CC CC CC CC CC CC  ŒŒŒŒŒŒŒŒŒŒŒŒŒŒŒŒ
  00000001400162F9: CC CC CC CC CC CC CC CC CC CC CC CC CC CC CC CC  ŒŒŒŒŒŒŒŒŒŒŒŒŒŒŒŒ
  0000000140016309: CC CC CC CC CC CC CC CC CC CC CC CC CC CC CC CC  ŒŒŒŒŒŒŒŒŒŒŒŒŒŒŒŒ
  0000000140016319: CC CC CC CC CC CC CC CC CC CC CC CC CC CC CC CC  ŒŒŒŒŒŒŒŒŒŒŒŒŒŒŒŒ
  0000000140016329: CC CC CC CC CC CC CC CC CC CC CC CC CC CC CC CC  ŒŒŒŒŒŒŒŒŒŒŒŒŒŒŒŒ
  0000000140016339: CC CC CC CC CC CC CC CC CC CC CC CC CC CC CC CC  ŒŒŒŒŒŒŒŒŒŒŒŒŒŒŒŒ
  0000000140016349: CC CC CC CC CC CC CC CC CC CC CC CC CC CC CC CC  ŒŒŒŒŒŒŒŒŒŒŒŒŒŒŒŒ
  0000000140016359: CC CC CC CC CC CC CC CC CC CC CC CC CC CC CC CC  ŒŒŒŒŒŒŒŒŒŒŒŒŒŒŒŒ
  0000000140016369: CC CC CC CC CC CC CC CC CC CC CC CC CC CC CC CC  ŒŒŒŒŒŒŒŒŒŒŒŒŒŒŒŒ
  0000000140016379: CC CC CC CC CC CC CC CC CC CC CC CC CC CC CC CC  ŒŒŒŒŒŒŒŒŒŒŒŒŒŒŒŒ
  0000000140016389: CC CC CC CC CC CC CC CC CC CC CC CC CC CC CC CC  ŒŒŒŒŒŒŒŒŒŒŒŒŒŒŒŒ
  0000000140016399: CC CC CC CC CC CC CC CC CC CC CC CC CC CC CC CC  ŒŒŒŒŒŒŒŒŒŒŒŒŒŒŒŒ
  00000001400163A9: CC CC CC CC CC CC CC CC CC CC CC CC CC CC CC CC  ŒŒŒŒŒŒŒŒŒŒŒŒŒŒŒŒ
  00000001400163B9: CC CC CC CC CC CC CC CC CC CC CC CC CC CC CC CC  ŒŒŒŒŒŒŒŒŒŒŒŒŒŒŒŒ
  00000001400163C9: CC CC CC CC CC CC CC CC CC CC CC CC CC CC CC CC  ŒŒŒŒŒŒŒŒŒŒŒŒŒŒŒŒ
  00000001400163D9: CC CC CC CC CC CC CC CC CC CC CC CC CC CC CC CC  ŒŒŒŒŒŒŒŒŒŒŒŒŒŒŒŒ
  00000001400163E9: CC CC CC CC CC CC CC CC CC CC CC CC CC CC CC CC  ŒŒŒŒŒŒŒŒŒŒŒŒŒŒŒŒ
  00000001400163F9: CC CC CC CC CC CC CC CC CC CC CC CC CC CC CC CC  ŒŒŒŒŒŒŒŒŒŒŒŒŒŒŒŒ
  0000000140016409: CC CC CC CC CC CC CC CC CC CC CC CC CC CC CC CC  ŒŒŒŒŒŒŒŒŒŒŒŒŒŒŒŒ
  0000000140016419: CC CC CC CC CC CC CC CC CC CC CC CC CC CC CC CC  ŒŒŒŒŒŒŒŒŒŒŒŒŒŒŒŒ
  0000000140016429: CC CC CC CC CC CC CC CC CC CC CC CC CC CC CC CC  ŒŒŒŒŒŒŒŒŒŒŒŒŒŒŒŒ
  0000000140016439: CC CC CC CC CC CC CC CC CC CC CC CC CC CC CC CC  ŒŒŒŒŒŒŒŒŒŒŒŒŒŒŒŒ
  0000000140016449: CC CC CC CC CC CC CC CC CC CC CC CC CC CC CC CC  ŒŒŒŒŒŒŒŒŒŒŒŒŒŒŒŒ
  0000000140016459: CC CC CC CC CC CC CC CC CC CC CC CC CC CC CC CC  ŒŒŒŒŒŒŒŒŒŒŒŒŒŒŒŒ
  0000000140016469: CC CC CC CC CC CC CC CC CC CC CC CC CC CC CC CC  ŒŒŒŒŒŒŒŒŒŒŒŒŒŒŒŒ
  0000000140016479: CC CC CC CC CC CC CC CC CC CC CC CC CC CC CC CC  ŒŒŒŒŒŒŒŒŒŒŒŒŒŒŒŒ
  0000000140016489: CC CC CC CC CC CC CC CC CC CC CC CC CC CC CC CC  ŒŒŒŒŒŒŒŒŒŒŒŒŒŒŒŒ
  0000000140016499: CC CC CC CC CC CC CC CC CC CC CC CC CC CC CC CC  ŒŒŒŒŒŒŒŒŒŒŒŒŒŒŒŒ
  00000001400164A9: CC CC CC CC CC CC CC CC CC CC CC CC CC CC CC CC  ŒŒŒŒŒŒŒŒŒŒŒŒŒŒŒŒ
  00000001400164B9: CC CC CC CC CC CC CC CC CC CC CC CC CC CC CC CC  ŒŒŒŒŒŒŒŒŒŒŒŒŒŒŒŒ
  00000001400164C9: CC CC CC CC CC CC CC CC CC CC CC CC CC CC CC CC  ŒŒŒŒŒŒŒŒŒŒŒŒŒŒŒŒ
  00000001400164D9: CC CC CC CC CC CC CC CC CC CC CC CC CC CC CC CC  ŒŒŒŒŒŒŒŒŒŒŒŒŒŒŒŒ
  00000001400164E9: CC CC CC CC CC CC CC CC CC CC CC CC CC CC CC CC  ŒŒŒŒŒŒŒŒŒŒŒŒŒŒŒŒ
  00000001400164F9: CC CC CC CC CC CC CC CC CC CC CC CC CC CC CC CC  ŒŒŒŒŒŒŒŒŒŒŒŒŒŒŒŒ
  0000000140016509: CC CC CC CC CC CC CC CC CC CC CC CC CC CC CC CC  ŒŒŒŒŒŒŒŒŒŒŒŒŒŒŒŒ
  0000000140016519: CC CC CC CC CC CC CC CC CC CC CC CC CC CC CC CC  ŒŒŒŒŒŒŒŒŒŒŒŒŒŒŒŒ
  0000000140016529: CC CC CC CC CC CC CC CC CC CC CC CC CC CC CC CC  ŒŒŒŒŒŒŒŒŒŒŒŒŒŒŒŒ
  0000000140016539: CC CC CC CC CC CC CC CC CC CC CC CC CC CC CC CC  ŒŒŒŒŒŒŒŒŒŒŒŒŒŒŒŒ
  0000000140016549: CC CC CC CC CC CC CC CC CC CC CC CC CC CC CC CC  ŒŒŒŒŒŒŒŒŒŒŒŒŒŒŒŒ
  0000000140016559: CC CC CC CC CC CC CC CC CC CC CC CC CC CC CC CC  ŒŒŒŒŒŒŒŒŒŒŒŒŒŒŒŒ
  0000000140016569: CC CC CC CC CC CC CC CC CC CC CC CC CC CC CC CC  ŒŒŒŒŒŒŒŒŒŒŒŒŒŒŒŒ
  0000000140016579: CC CC CC CC CC CC CC CC CC CC CC CC CC CC CC CC  ŒŒŒŒŒŒŒŒŒŒŒŒŒŒŒŒ
  0000000140016589: CC CC CC CC CC CC CC CC CC CC CC CC CC CC CC CC  ŒŒŒŒŒŒŒŒŒŒŒŒŒŒŒŒ
  0000000140016599: CC CC CC CC CC CC CC CC CC CC CC CC CC CC CC CC  ŒŒŒŒŒŒŒŒŒŒŒŒŒŒŒŒ
  00000001400165A9: CC CC CC CC CC CC CC CC CC CC CC CC CC CC CC CC  ŒŒŒŒŒŒŒŒŒŒŒŒŒŒŒŒ
  00000001400165B9: CC CC CC CC CC CC CC CC CC CC CC CC CC CC CC CC  ŒŒŒŒŒŒŒŒŒŒŒŒŒŒŒŒ
  00000001400165C9: CC CC CC CC CC CC CC CC CC CC CC CC CC CC CC CC  ŒŒŒŒŒŒŒŒŒŒŒŒŒŒŒŒ
  00000001400165D9: CC CC CC CC CC CC CC CC CC CC CC CC CC CC CC CC  ŒŒŒŒŒŒŒŒŒŒŒŒŒŒŒŒ
  00000001400165E9: CC CC CC CC CC CC CC CC CC CC CC CC CC CC CC CC  ŒŒŒŒŒŒŒŒŒŒŒŒŒŒŒŒ
  00000001400165F9: CC CC CC CC CC CC CC CC CC CC CC CC CC CC CC CC  ŒŒŒŒŒŒŒŒŒŒŒŒŒŒŒŒ
  0000000140016609: CC CC CC CC CC CC CC CC CC CC CC CC CC CC CC CC  ŒŒŒŒŒŒŒŒŒŒŒŒŒŒŒŒ
  0000000140016619: CC CC CC CC CC CC CC CC CC CC CC CC CC CC CC CC  ŒŒŒŒŒŒŒŒŒŒŒŒŒŒŒŒ
  0000000140016629: CC CC CC CC CC CC CC CC CC CC CC CC CC CC CC CC  ŒŒŒŒŒŒŒŒŒŒŒŒŒŒŒŒ
  0000000140016639: CC CC CC CC CC CC CC CC CC CC CC CC CC CC CC CC  ŒŒŒŒŒŒŒŒŒŒŒŒŒŒŒŒ
  0000000140016649: CC CC CC CC CC CC CC CC CC CC CC CC CC CC CC CC  ŒŒŒŒŒŒŒŒŒŒŒŒŒŒŒŒ
  0000000140016659: CC CC CC CC CC CC CC CC CC CC CC CC CC CC CC CC  ŒŒŒŒŒŒŒŒŒŒŒŒŒŒŒŒ
  0000000140016669: CC CC CC CC CC CC CC CC CC CC CC CC CC CC CC CC  ŒŒŒŒŒŒŒŒŒŒŒŒŒŒŒŒ
  0000000140016679: CC CC CC CC CC CC CC CC CC CC CC CC CC CC CC CC  ŒŒŒŒŒŒŒŒŒŒŒŒŒŒŒŒ
  0000000140016689: CC CC CC CC CC CC CC CC CC CC CC CC CC CC CC CC  ŒŒŒŒŒŒŒŒŒŒŒŒŒŒŒŒ
  0000000140016699: CC CC CC CC CC CC CC CC CC CC CC CC CC CC CC CC  ŒŒŒŒŒŒŒŒŒŒŒŒŒŒŒŒ
  00000001400166A9: CC CC CC CC CC CC CC CC CC CC CC CC CC CC CC CC  ŒŒŒŒŒŒŒŒŒŒŒŒŒŒŒŒ
  00000001400166B9: CC CC CC CC CC CC CC CC CC CC CC CC CC CC CC CC  ŒŒŒŒŒŒŒŒŒŒŒŒŒŒŒŒ
  00000001400166C9: CC CC CC CC CC CC CC CC CC CC CC CC CC CC CC CC  ŒŒŒŒŒŒŒŒŒŒŒŒŒŒŒŒ
  00000001400166D9: CC CC CC CC CC CC CC CC CC CC CC CC CC CC CC CC  ŒŒŒŒŒŒŒŒŒŒŒŒŒŒŒŒ
  00000001400166E9: CC CC CC CC CC CC CC CC CC CC CC CC CC CC CC CC  ŒŒŒŒŒŒŒŒŒŒŒŒŒŒŒŒ
  00000001400166F9: CC CC CC CC CC CC CC CC CC CC CC CC CC CC CC CC  ŒŒŒŒŒŒŒŒŒŒŒŒŒŒŒŒ
  0000000140016709: CC CC CC CC CC CC CC CC CC CC CC CC CC CC CC CC  ŒŒŒŒŒŒŒŒŒŒŒŒŒŒŒŒ
  0000000140016719: CC CC CC CC CC CC CC CC CC CC CC CC CC CC CC CC  ŒŒŒŒŒŒŒŒŒŒŒŒŒŒŒŒ
  0000000140016729: CC CC CC CC CC CC CC CC CC CC CC CC CC CC CC CC  ŒŒŒŒŒŒŒŒŒŒŒŒŒŒŒŒ
  0000000140016739: CC CC CC CC CC CC CC CC CC CC CC CC CC CC CC CC  ŒŒŒŒŒŒŒŒŒŒŒŒŒŒŒŒ
  0000000140016749: CC CC CC CC CC CC CC CC CC CC CC CC CC CC CC CC  ŒŒŒŒŒŒŒŒŒŒŒŒŒŒŒŒ
  0000000140016759: CC CC CC CC CC CC CC CC CC CC CC CC CC CC CC CC  ŒŒŒŒŒŒŒŒŒŒŒŒŒŒŒŒ
  0000000140016769: CC CC CC CC CC CC CC CC CC CC CC CC CC CC CC CC  ŒŒŒŒŒŒŒŒŒŒŒŒŒŒŒŒ
  0000000140016779: CC CC CC CC CC CC CC CC CC CC CC CC CC CC CC CC  ŒŒŒŒŒŒŒŒŒŒŒŒŒŒŒŒ
  0000000140016789: CC CC CC CC CC CC CC CC CC CC CC CC CC CC CC CC  ŒŒŒŒŒŒŒŒŒŒŒŒŒŒŒŒ
  0000000140016799: CC CC CC CC CC CC CC CC CC CC CC CC CC CC CC CC  ŒŒŒŒŒŒŒŒŒŒŒŒŒŒŒŒ
  00000001400167A9: CC CC CC CC CC CC CC CC CC CC CC CC CC CC CC CC  ŒŒŒŒŒŒŒŒŒŒŒŒŒŒŒŒ
  00000001400167B9: CC CC CC CC CC CC CC CC CC CC CC CC CC CC CC CC  ŒŒŒŒŒŒŒŒŒŒŒŒŒŒŒŒ
  00000001400167C9: CC CC CC CC CC CC CC CC CC CC CC CC CC CC CC CC  ŒŒŒŒŒŒŒŒŒŒŒŒŒŒŒŒ
  00000001400167D9: CC CC CC CC CC CC CC CC CC CC CC CC CC CC CC CC  ŒŒŒŒŒŒŒŒŒŒŒŒŒŒŒŒ
  00000001400167E9: CC CC CC CC CC CC CC CC CC CC CC CC CC CC CC CC  ŒŒŒŒŒŒŒŒŒŒŒŒŒŒŒŒ
  00000001400167F9: CC CC CC CC CC CC CC CC CC CC CC CC CC CC CC CC  ŒŒŒŒŒŒŒŒŒŒŒŒŒŒŒŒ
  0000000140016809: CC CC CC CC CC CC CC CC CC CC CC CC CC CC CC CC  ŒŒŒŒŒŒŒŒŒŒŒŒŒŒŒŒ
  0000000140016819: CC CC CC CC CC CC CC CC CC CC CC CC CC CC CC CC  ŒŒŒŒŒŒŒŒŒŒŒŒŒŒŒŒ
  0000000140016829: CC CC CC CC CC CC CC CC CC CC CC CC CC CC CC CC  ŒŒŒŒŒŒŒŒŒŒŒŒŒŒŒŒ
  0000000140016839: CC CC CC CC CC CC CC CC CC CC CC CC CC CC CC CC  ŒŒŒŒŒŒŒŒŒŒŒŒŒŒŒŒ
  0000000140016849: CC CC CC CC CC CC CC CC CC CC CC CC CC CC CC CC  ŒŒŒŒŒŒŒŒŒŒŒŒŒŒŒŒ
  0000000140016859: CC CC CC CC CC CC CC CC CC CC CC CC CC CC CC CC  ŒŒŒŒŒŒŒŒŒŒŒŒŒŒŒŒ
  0000000140016869: CC CC CC CC CC CC CC CC CC CC CC CC CC CC CC CC  ŒŒŒŒŒŒŒŒŒŒŒŒŒŒŒŒ
  0000000140016879: CC CC CC CC CC CC CC CC CC CC CC CC CC CC CC CC  ŒŒŒŒŒŒŒŒŒŒŒŒŒŒŒŒ
  0000000140016889: CC CC CC CC CC CC CC CC CC CC CC CC CC CC CC CC  ŒŒŒŒŒŒŒŒŒŒŒŒŒŒŒŒ
  0000000140016899: CC CC CC CC CC CC CC CC CC CC CC CC CC CC CC CC  ŒŒŒŒŒŒŒŒŒŒŒŒŒŒŒŒ
  00000001400168A9: CC CC CC CC CC CC CC CC CC CC CC CC CC CC CC CC  ŒŒŒŒŒŒŒŒŒŒŒŒŒŒŒŒ
  00000001400168B9: CC CC CC CC CC CC CC CC CC CC CC CC CC CC CC CC  ŒŒŒŒŒŒŒŒŒŒŒŒŒŒŒŒ
  00000001400168C9: CC CC CC CC CC CC CC CC CC CC CC CC CC CC CC CC  ŒŒŒŒŒŒŒŒŒŒŒŒŒŒŒŒ
  00000001400168D9: CC CC CC CC CC CC CC CC CC CC CC CC CC CC CC CC  ŒŒŒŒŒŒŒŒŒŒŒŒŒŒŒŒ
  00000001400168E9: CC CC CC CC CC CC CC CC CC CC CC CC CC CC CC CC  ŒŒŒŒŒŒŒŒŒŒŒŒŒŒŒŒ
  00000001400168F9: CC CC CC CC CC CC CC CC CC CC CC CC CC CC CC CC  ŒŒŒŒŒŒŒŒŒŒŒŒŒŒŒŒ
  0000000140016909: CC CC CC CC CC CC CC CC CC CC CC CC CC CC CC CC  ŒŒŒŒŒŒŒŒŒŒŒŒŒŒŒŒ
  0000000140016919: CC CC CC CC CC CC CC CC CC CC CC CC CC CC CC CC  ŒŒŒŒŒŒŒŒŒŒŒŒŒŒŒŒ
  0000000140016929: CC CC CC CC CC CC CC CC CC CC CC CC CC CC CC CC  ŒŒŒŒŒŒŒŒŒŒŒŒŒŒŒŒ
  0000000140016939: CC CC CC CC CC CC CC CC CC CC CC CC CC CC CC CC  ŒŒŒŒŒŒŒŒŒŒŒŒŒŒŒŒ
  0000000140016949: CC CC CC CC CC CC CC CC CC CC CC CC CC CC CC CC  ŒŒŒŒŒŒŒŒŒŒŒŒŒŒŒŒ
  0000000140016959: CC CC CC CC CC CC CC CC CC CC CC CC CC CC CC CC  ŒŒŒŒŒŒŒŒŒŒŒŒŒŒŒŒ
  0000000140016969: CC CC CC CC CC CC CC CC CC CC CC CC CC CC CC CC  ŒŒŒŒŒŒŒŒŒŒŒŒŒŒŒŒ
  0000000140016979: CC CC CC CC CC CC CC CC CC CC CC CC CC CC CC CC  ŒŒŒŒŒŒŒŒŒŒŒŒŒŒŒŒ
  0000000140016989: CC CC CC CC CC CC CC CC CC CC CC CC CC CC CC CC  ŒŒŒŒŒŒŒŒŒŒŒŒŒŒŒŒ
  0000000140016999: CC CC CC CC CC CC CC CC CC CC CC CC CC CC CC CC  ŒŒŒŒŒŒŒŒŒŒŒŒŒŒŒŒ
  00000001400169A9: CC CC CC CC CC CC CC CC CC CC CC CC CC CC CC CC  ŒŒŒŒŒŒŒŒŒŒŒŒŒŒŒŒ
  00000001400169B9: CC CC CC CC CC CC CC CC CC CC CC CC CC CC CC CC  ŒŒŒŒŒŒŒŒŒŒŒŒŒŒŒŒ
  00000001400169C9: CC CC CC CC CC CC CC CC CC CC CC CC CC CC CC CC  ŒŒŒŒŒŒŒŒŒŒŒŒŒŒŒŒ
  00000001400169D9: CC CC CC CC CC CC CC CC CC CC CC CC CC CC CC CC  ŒŒŒŒŒŒŒŒŒŒŒŒŒŒŒŒ
  00000001400169E9: CC CC CC CC CC CC CC CC CC CC CC CC CC CC CC CC  ŒŒŒŒŒŒŒŒŒŒŒŒŒŒŒŒ
  00000001400169F9: CC CC CC CC CC CC CC CC CC CC CC CC CC CC CC CC  ŒŒŒŒŒŒŒŒŒŒŒŒŒŒŒŒ
  0000000140016A09: CC CC CC CC CC CC CC CC CC CC CC CC CC CC CC CC  ŒŒŒŒŒŒŒŒŒŒŒŒŒŒŒŒ
  0000000140016A19: CC CC CC CC CC CC CC CC CC CC CC CC CC CC CC CC  ŒŒŒŒŒŒŒŒŒŒŒŒŒŒŒŒ
  0000000140016A29: CC CC CC CC CC CC CC CC CC CC CC CC CC CC CC CC  ŒŒŒŒŒŒŒŒŒŒŒŒŒŒŒŒ
  0000000140016A39: CC CC CC CC CC CC CC CC CC CC CC CC CC CC CC CC  ŒŒŒŒŒŒŒŒŒŒŒŒŒŒŒŒ
  0000000140016A49: CC CC CC CC CC CC CC CC CC CC CC CC CC CC CC CC  ŒŒŒŒŒŒŒŒŒŒŒŒŒŒŒŒ
  0000000140016A59: CC CC CC CC CC CC CC CC CC CC CC CC CC CC CC CC  ŒŒŒŒŒŒŒŒŒŒŒŒŒŒŒŒ
  0000000140016A69: CC CC CC CC CC CC CC CC CC CC CC CC CC CC CC CC  ŒŒŒŒŒŒŒŒŒŒŒŒŒŒŒŒ
  0000000140016A79: CC CC CC CC CC CC CC CC CC CC CC CC CC CC CC CC  ŒŒŒŒŒŒŒŒŒŒŒŒŒŒŒŒ
  0000000140016A89: CC CC CC CC CC CC CC CC CC CC CC CC CC CC CC CC  ŒŒŒŒŒŒŒŒŒŒŒŒŒŒŒŒ
  0000000140016A99: CC CC CC CC CC CC CC CC CC CC CC CC CC CC CC CC  ŒŒŒŒŒŒŒŒŒŒŒŒŒŒŒŒ
  0000000140016AA9: CC CC CC CC CC CC CC CC CC CC CC CC CC CC CC CC  ŒŒŒŒŒŒŒŒŒŒŒŒŒŒŒŒ
  0000000140016AB9: CC CC CC CC CC CC CC CC CC CC CC CC CC CC CC CC  ŒŒŒŒŒŒŒŒŒŒŒŒŒŒŒŒ
  0000000140016AC9: CC CC CC CC CC CC CC CC CC CC CC CC CC CC CC CC  ŒŒŒŒŒŒŒŒŒŒŒŒŒŒŒŒ
  0000000140016AD9: CC CC CC CC CC CC CC CC CC CC CC CC CC CC CC CC  ŒŒŒŒŒŒŒŒŒŒŒŒŒŒŒŒ
  0000000140016AE9: CC CC CC CC CC CC CC CC CC CC CC CC CC CC CC CC  ŒŒŒŒŒŒŒŒŒŒŒŒŒŒŒŒ
  0000000140016AF9: CC CC CC CC CC CC CC CC CC CC CC CC CC CC CC CC  ŒŒŒŒŒŒŒŒŒŒŒŒŒŒŒŒ
  0000000140016B09: CC CC CC CC CC CC CC CC CC CC CC CC CC CC CC CC  ŒŒŒŒŒŒŒŒŒŒŒŒŒŒŒŒ
  0000000140016B19: CC CC CC CC CC CC CC CC CC CC CC CC CC CC CC CC  ŒŒŒŒŒŒŒŒŒŒŒŒŒŒŒŒ
  0000000140016B29: CC CC CC CC CC CC CC CC CC CC CC CC CC CC CC CC  ŒŒŒŒŒŒŒŒŒŒŒŒŒŒŒŒ
  0000000140016B39: CC CC CC CC CC CC CC CC CC CC CC CC CC CC CC CC  ŒŒŒŒŒŒŒŒŒŒŒŒŒŒŒŒ
  0000000140016B49: CC CC CC CC CC CC CC CC CC CC CC CC CC CC CC CC  ŒŒŒŒŒŒŒŒŒŒŒŒŒŒŒŒ
  0000000140016B59: CC CC CC CC CC CC CC CC CC CC CC CC CC CC CC CC  ŒŒŒŒŒŒŒŒŒŒŒŒŒŒŒŒ
  0000000140016B69: CC CC CC CC CC CC CC CC CC CC CC CC CC CC CC CC  ŒŒŒŒŒŒŒŒŒŒŒŒŒŒŒŒ
  0000000140016B79: CC CC CC CC CC CC CC CC CC CC CC CC CC CC CC CC  ŒŒŒŒŒŒŒŒŒŒŒŒŒŒŒŒ
  0000000140016B89: CC CC CC CC CC CC CC CC CC CC CC CC CC CC CC CC  ŒŒŒŒŒŒŒŒŒŒŒŒŒŒŒŒ
  0000000140016B99: CC CC CC CC CC CC CC CC CC CC CC CC CC CC CC CC  ŒŒŒŒŒŒŒŒŒŒŒŒŒŒŒŒ
  0000000140016BA9: CC CC CC CC CC CC CC CC CC CC CC CC CC CC CC CC  ŒŒŒŒŒŒŒŒŒŒŒŒŒŒŒŒ
  0000000140016BB9: CC CC CC CC CC CC CC CC CC CC CC CC CC CC CC CC  ŒŒŒŒŒŒŒŒŒŒŒŒŒŒŒŒ
  0000000140016BC9: CC CC CC CC CC CC CC CC CC CC CC CC CC CC CC CC  ŒŒŒŒŒŒŒŒŒŒŒŒŒŒŒŒ
  0000000140016BD9: CC CC CC CC CC CC CC CC CC CC CC CC CC CC CC CC  ŒŒŒŒŒŒŒŒŒŒŒŒŒŒŒŒ
  0000000140016BE9: CC CC CC CC CC CC CC CC CC CC CC CC CC CC CC CC  ŒŒŒŒŒŒŒŒŒŒŒŒŒŒŒŒ
  0000000140016BF9: CC CC CC CC CC CC CC CC CC CC CC CC CC CC CC CC  ŒŒŒŒŒŒŒŒŒŒŒŒŒŒŒŒ
  0000000140016C09: CC CC CC CC CC CC CC CC CC CC CC CC CC CC CC CC  ŒŒŒŒŒŒŒŒŒŒŒŒŒŒŒŒ
  0000000140016C19: CC CC CC CC CC CC CC CC CC CC CC CC CC CC CC CC  ŒŒŒŒŒŒŒŒŒŒŒŒŒŒŒŒ
  0000000140016C29: CC CC CC CC CC CC CC CC CC CC CC CC CC CC CC CC  ŒŒŒŒŒŒŒŒŒŒŒŒŒŒŒŒ
  0000000140016C39: CC CC CC CC CC CC CC CC CC CC CC CC CC CC CC CC  ŒŒŒŒŒŒŒŒŒŒŒŒŒŒŒŒ
  0000000140016C49: CC CC CC CC CC CC CC CC CC CC CC CC CC CC CC CC  ŒŒŒŒŒŒŒŒŒŒŒŒŒŒŒŒ
  0000000140016C59: CC CC CC CC CC CC CC CC CC CC CC CC CC CC CC CC  ŒŒŒŒŒŒŒŒŒŒŒŒŒŒŒŒ
  0000000140016C69: CC CC CC CC CC CC CC CC CC CC CC CC CC CC CC CC  ŒŒŒŒŒŒŒŒŒŒŒŒŒŒŒŒ
  0000000140016C79: CC CC CC CC CC CC CC CC CC CC CC CC CC CC CC CC  ŒŒŒŒŒŒŒŒŒŒŒŒŒŒŒŒ
  0000000140016C89: CC CC CC CC CC CC CC CC CC CC CC CC CC CC CC CC  ŒŒŒŒŒŒŒŒŒŒŒŒŒŒŒŒ
  0000000140016C99: CC CC CC CC CC CC CC CC CC CC CC CC CC CC CC CC  ŒŒŒŒŒŒŒŒŒŒŒŒŒŒŒŒ
  0000000140016CA9: CC CC CC CC CC CC CC CC CC CC CC CC CC CC CC CC  ŒŒŒŒŒŒŒŒŒŒŒŒŒŒŒŒ
  0000000140016CB9: CC CC CC CC CC CC CC CC CC CC CC CC CC CC CC CC  ŒŒŒŒŒŒŒŒŒŒŒŒŒŒŒŒ
  0000000140016CC9: CC CC CC CC CC CC CC CC CC CC CC CC CC CC CC CC  ŒŒŒŒŒŒŒŒŒŒŒŒŒŒŒŒ
  0000000140016CD9: CC CC CC CC CC CC CC CC CC CC CC CC CC CC CC CC  ŒŒŒŒŒŒŒŒŒŒŒŒŒŒŒŒ
  0000000140016CE9: CC CC CC CC CC CC CC CC CC CC CC CC CC CC CC CC  ŒŒŒŒŒŒŒŒŒŒŒŒŒŒŒŒ
  0000000140016CF9: CC CC CC CC CC CC CC CC CC CC CC CC CC CC CC CC  ŒŒŒŒŒŒŒŒŒŒŒŒŒŒŒŒ
  0000000140016D09: CC CC CC CC CC CC CC CC CC CC CC CC CC CC CC CC  ŒŒŒŒŒŒŒŒŒŒŒŒŒŒŒŒ
  0000000140016D19: CC CC CC CC CC CC CC CC CC CC CC CC CC CC CC CC  ŒŒŒŒŒŒŒŒŒŒŒŒŒŒŒŒ
  0000000140016D29: CC CC CC CC CC CC CC CC CC CC CC CC CC CC CC CC  ŒŒŒŒŒŒŒŒŒŒŒŒŒŒŒŒ
  0000000140016D39: CC CC CC CC CC CC CC CC CC CC CC CC CC CC CC CC  ŒŒŒŒŒŒŒŒŒŒŒŒŒŒŒŒ
  0000000140016D49: CC CC CC CC CC CC CC CC CC CC CC CC CC CC CC CC  ŒŒŒŒŒŒŒŒŒŒŒŒŒŒŒŒ
  0000000140016D59: CC CC CC CC CC CC CC CC CC CC CC CC CC CC CC CC  ŒŒŒŒŒŒŒŒŒŒŒŒŒŒŒŒ
  0000000140016D69: CC CC CC CC CC CC CC CC CC CC CC CC CC CC CC CC  ŒŒŒŒŒŒŒŒŒŒŒŒŒŒŒŒ
  0000000140016D79: CC CC CC CC CC CC CC CC CC CC CC CC CC CC CC CC  ŒŒŒŒŒŒŒŒŒŒŒŒŒŒŒŒ
  0000000140016D89: CC CC CC CC CC CC CC CC CC CC CC CC CC CC CC CC  ŒŒŒŒŒŒŒŒŒŒŒŒŒŒŒŒ
  0000000140016D99: CC CC CC CC CC CC CC CC CC CC CC CC CC CC CC CC  ŒŒŒŒŒŒŒŒŒŒŒŒŒŒŒŒ
  0000000140016DA9: CC CC CC CC CC CC CC CC CC CC CC CC CC CC CC CC  ŒŒŒŒŒŒŒŒŒŒŒŒŒŒŒŒ
  0000000140016DB9: CC CC CC CC CC CC CC CC CC CC CC CC CC CC CC CC  ŒŒŒŒŒŒŒŒŒŒŒŒŒŒŒŒ
  0000000140016DC9: CC CC CC CC CC CC CC CC CC CC CC CC CC CC CC CC  ŒŒŒŒŒŒŒŒŒŒŒŒŒŒŒŒ
  0000000140016DD9: CC CC CC CC CC CC CC CC CC CC CC CC CC CC CC CC  ŒŒŒŒŒŒŒŒŒŒŒŒŒŒŒŒ
  0000000140016DE9: CC CC CC CC CC CC CC CC CC CC CC CC CC CC CC CC  ŒŒŒŒŒŒŒŒŒŒŒŒŒŒŒŒ
  0000000140016DF9: CC CC CC CC CC CC CC CC CC CC CC CC CC CC CC CC  ŒŒŒŒŒŒŒŒŒŒŒŒŒŒŒŒ
  0000000140016E09: CC CC CC CC CC CC CC CC CC CC CC CC CC CC CC CC  ŒŒŒŒŒŒŒŒŒŒŒŒŒŒŒŒ
  0000000140016E19: CC CC CC CC CC CC CC CC CC CC CC CC CC CC CC CC  ŒŒŒŒŒŒŒŒŒŒŒŒŒŒŒŒ
  0000000140016E29: CC CC CC CC CC CC CC CC CC CC CC CC CC CC CC CC  ŒŒŒŒŒŒŒŒŒŒŒŒŒŒŒŒ
  0000000140016E39: CC CC CC CC CC CC CC CC CC CC CC CC CC CC CC CC  ŒŒŒŒŒŒŒŒŒŒŒŒŒŒŒŒ
  0000000140016E49: CC CC CC CC CC CC CC CC CC CC CC CC CC CC CC CC  ŒŒŒŒŒŒŒŒŒŒŒŒŒŒŒŒ
  0000000140016E59: CC CC CC CC CC CC CC CC CC CC CC CC CC CC CC CC  ŒŒŒŒŒŒŒŒŒŒŒŒŒŒŒŒ
  0000000140016E69: CC CC CC CC CC CC CC CC CC CC CC CC CC CC CC CC  ŒŒŒŒŒŒŒŒŒŒŒŒŒŒŒŒ
  0000000140016E79: CC CC CC CC CC CC CC CC CC CC CC CC CC CC CC CC  ŒŒŒŒŒŒŒŒŒŒŒŒŒŒŒŒ
  0000000140016E89: CC CC CC CC CC CC CC CC CC CC CC CC CC CC CC CC  ŒŒŒŒŒŒŒŒŒŒŒŒŒŒŒŒ
  0000000140016E99: CC CC CC CC CC CC CC CC CC CC CC CC CC CC CC CC  ŒŒŒŒŒŒŒŒŒŒŒŒŒŒŒŒ
  0000000140016EA9: CC CC CC CC CC CC CC CC CC CC CC CC CC CC CC CC  ŒŒŒŒŒŒŒŒŒŒŒŒŒŒŒŒ
  0000000140016EB9: CC CC CC CC CC CC CC CC CC CC CC CC CC CC CC CC  ŒŒŒŒŒŒŒŒŒŒŒŒŒŒŒŒ
  0000000140016EC9: CC CC CC CC CC CC CC CC CC CC CC CC CC CC CC CC  ŒŒŒŒŒŒŒŒŒŒŒŒŒŒŒŒ
  0000000140016ED9: CC CC CC CC CC CC CC CC CC CC CC CC CC CC CC CC  ŒŒŒŒŒŒŒŒŒŒŒŒŒŒŒŒ
  0000000140016EE9: CC CC CC CC CC CC CC CC CC CC CC CC CC CC CC CC  ŒŒŒŒŒŒŒŒŒŒŒŒŒŒŒŒ
  0000000140016EF9: CC CC CC CC CC CC CC CC CC CC CC CC CC CC CC CC  ŒŒŒŒŒŒŒŒŒŒŒŒŒŒŒŒ
  0000000140016F09: CC CC CC CC CC CC CC CC CC CC CC CC CC CC CC CC  ŒŒŒŒŒŒŒŒŒŒŒŒŒŒŒŒ
  0000000140016F19: CC CC CC CC CC CC CC CC CC CC CC CC CC CC CC CC  ŒŒŒŒŒŒŒŒŒŒŒŒŒŒŒŒ
  0000000140016F29: CC CC CC CC CC CC CC CC CC CC CC CC CC CC CC CC  ŒŒŒŒŒŒŒŒŒŒŒŒŒŒŒŒ
  0000000140016F39: CC CC CC CC CC CC CC CC CC CC CC CC CC CC CC CC  ŒŒŒŒŒŒŒŒŒŒŒŒŒŒŒŒ
  0000000140016F49: CC CC CC CC CC CC CC CC CC CC CC CC CC CC CC CC  ŒŒŒŒŒŒŒŒŒŒŒŒŒŒŒŒ
  0000000140016F59: CC CC CC CC CC CC CC CC CC CC CC CC CC CC CC CC  ŒŒŒŒŒŒŒŒŒŒŒŒŒŒŒŒ
  0000000140016F69: CC CC CC CC CC CC CC CC CC CC CC CC CC CC CC CC  ŒŒŒŒŒŒŒŒŒŒŒŒŒŒŒŒ
  0000000140016F79: CC CC CC CC CC CC CC CC CC CC CC CC CC CC CC CC  ŒŒŒŒŒŒŒŒŒŒŒŒŒŒŒŒ
  0000000140016F89: CC CC CC CC CC CC CC CC CC CC CC CC CC CC CC CC  ŒŒŒŒŒŒŒŒŒŒŒŒŒŒŒŒ
  0000000140016F99: CC CC CC CC CC CC CC CC CC CC CC CC CC CC CC CC  ŒŒŒŒŒŒŒŒŒŒŒŒŒŒŒŒ
  0000000140016FA9: CC CC CC CC CC CC CC CC CC CC CC CC CC CC CC CC  ŒŒŒŒŒŒŒŒŒŒŒŒŒŒŒŒ
  0000000140016FB9: CC CC CC CC CC CC CC CC CC CC CC CC CC CC CC CC  ŒŒŒŒŒŒŒŒŒŒŒŒŒŒŒŒ
  0000000140016FC9: CC CC CC CC CC CC CC CC CC CC CC CC CC CC CC CC  ŒŒŒŒŒŒŒŒŒŒŒŒŒŒŒŒ
  0000000140016FD9: CC CC CC CC CC CC CC CC CC CC CC CC CC CC CC CC  ŒŒŒŒŒŒŒŒŒŒŒŒŒŒŒŒ
  0000000140016FE9: CC CC CC CC CC CC CC CC CC CC CC CC CC CC CC CC  ŒŒŒŒŒŒŒŒŒŒŒŒŒŒŒŒ
  0000000140016FF9: CC CC CC CC CC CC CC CC CC CC CC CC CC CC CC CC  ŒŒŒŒŒŒŒŒŒŒŒŒŒŒŒŒ
  0000000140017009: CC CC CC CC CC CC CC CC CC CC CC CC CC CC CC CC  ŒŒŒŒŒŒŒŒŒŒŒŒŒŒŒŒ
  0000000140017019: CC CC CC CC CC CC CC CC CC CC CC CC CC CC CC CC  ŒŒŒŒŒŒŒŒŒŒŒŒŒŒŒŒ
  0000000140017029: CC CC CC CC CC CC CC CC CC CC CC CC CC CC CC CC  ŒŒŒŒŒŒŒŒŒŒŒŒŒŒŒŒ
  0000000140017039: CC CC CC CC CC CC CC CC CC CC CC CC CC CC CC CC  ŒŒŒŒŒŒŒŒŒŒŒŒŒŒŒŒ
  0000000140017049: CC CC CC CC CC CC CC CC CC CC CC CC CC CC CC CC  ŒŒŒŒŒŒŒŒŒŒŒŒŒŒŒŒ
  0000000140017059: CC CC CC CC CC CC CC CC CC CC CC CC CC CC CC CC  ŒŒŒŒŒŒŒŒŒŒŒŒŒŒŒŒ
  0000000140017069: CC CC CC CC CC CC CC CC CC CC CC CC CC CC CC CC  ŒŒŒŒŒŒŒŒŒŒŒŒŒŒŒŒ
  0000000140017079: CC CC CC CC CC CC CC CC CC CC CC CC CC CC CC CC  ŒŒŒŒŒŒŒŒŒŒŒŒŒŒŒŒ
  0000000140017089: CC CC CC CC CC CC CC CC CC CC CC CC CC CC CC CC  ŒŒŒŒŒŒŒŒŒŒŒŒŒŒŒŒ
  0000000140017099: CC CC CC CC CC CC CC CC CC CC CC CC CC CC CC CC  ŒŒŒŒŒŒŒŒŒŒŒŒŒŒŒŒ
  00000001400170A9: CC CC CC CC CC CC CC CC CC CC CC CC CC CC CC CC  ŒŒŒŒŒŒŒŒŒŒŒŒŒŒŒŒ
  00000001400170B9: CC CC CC CC CC CC CC CC CC CC CC CC CC CC CC CC  ŒŒŒŒŒŒŒŒŒŒŒŒŒŒŒŒ
  00000001400170C9: CC CC CC CC CC CC CC CC CC CC CC CC CC CC CC CC  ŒŒŒŒŒŒŒŒŒŒŒŒŒŒŒŒ
  00000001400170D9: CC CC CC CC CC CC CC CC CC CC CC CC CC CC CC CC  ŒŒŒŒŒŒŒŒŒŒŒŒŒŒŒŒ
  00000001400170E9: CC CC CC CC CC CC CC CC CC CC CC CC CC CC CC CC  ŒŒŒŒŒŒŒŒŒŒŒŒŒŒŒŒ
  00000001400170F9: CC CC CC CC CC CC CC CC CC CC CC CC CC CC CC CC  ŒŒŒŒŒŒŒŒŒŒŒŒŒŒŒŒ
  0000000140017109: CC CC CC CC CC CC CC CC CC CC CC CC CC CC CC CC  ŒŒŒŒŒŒŒŒŒŒŒŒŒŒŒŒ
  0000000140017119: CC CC CC CC CC CC CC CC CC CC CC CC CC CC CC CC  ŒŒŒŒŒŒŒŒŒŒŒŒŒŒŒŒ
  0000000140017129: CC CC CC CC CC CC CC CC CC CC CC CC CC CC CC CC  ŒŒŒŒŒŒŒŒŒŒŒŒŒŒŒŒ
  0000000140017139: CC CC CC CC CC CC CC CC CC CC CC CC CC CC CC CC  ŒŒŒŒŒŒŒŒŒŒŒŒŒŒŒŒ
  0000000140017149: CC CC CC CC CC CC CC CC CC CC CC CC CC CC CC CC  ŒŒŒŒŒŒŒŒŒŒŒŒŒŒŒŒ
  0000000140017159: CC CC CC CC CC CC CC CC CC CC CC CC CC CC CC CC  ŒŒŒŒŒŒŒŒŒŒŒŒŒŒŒŒ
  0000000140017169: CC CC CC CC CC CC CC CC CC CC CC CC CC CC CC CC  ŒŒŒŒŒŒŒŒŒŒŒŒŒŒŒŒ
  0000000140017179: CC CC CC CC CC CC CC CC CC CC CC CC CC CC CC CC  ŒŒŒŒŒŒŒŒŒŒŒŒŒŒŒŒ
  0000000140017189: CC CC CC CC CC CC CC CC CC CC CC CC CC CC CC CC  ŒŒŒŒŒŒŒŒŒŒŒŒŒŒŒŒ
  0000000140017199: CC CC CC CC CC CC CC CC CC CC CC CC CC CC CC CC  ŒŒŒŒŒŒŒŒŒŒŒŒŒŒŒŒ
  00000001400171A9: CC CC CC CC CC CC CC CC CC CC CC CC CC CC CC CC  ŒŒŒŒŒŒŒŒŒŒŒŒŒŒŒŒ
  00000001400171B9: CC CC CC CC CC CC CC CC CC CC CC CC CC CC CC CC  ŒŒŒŒŒŒŒŒŒŒŒŒŒŒŒŒ
  00000001400171C9: CC CC CC CC CC CC CC CC CC CC CC CC CC CC CC CC  ŒŒŒŒŒŒŒŒŒŒŒŒŒŒŒŒ
  00000001400171D9: CC CC CC CC CC CC CC CC CC CC CC CC CC CC CC CC  ŒŒŒŒŒŒŒŒŒŒŒŒŒŒŒŒ
  00000001400171E9: CC CC CC CC CC CC CC CC CC CC CC CC CC CC CC CC  ŒŒŒŒŒŒŒŒŒŒŒŒŒŒŒŒ
  00000001400171F9: CC CC CC CC CC CC CC CC CC CC CC CC CC CC CC CC  ŒŒŒŒŒŒŒŒŒŒŒŒŒŒŒŒ
  0000000140017209: CC CC CC CC CC CC CC CC CC CC CC CC CC CC CC CC  ŒŒŒŒŒŒŒŒŒŒŒŒŒŒŒŒ
  0000000140017219: CC CC CC CC CC CC CC CC CC CC CC CC CC CC CC CC  ŒŒŒŒŒŒŒŒŒŒŒŒŒŒŒŒ
  0000000140017229: CC CC CC CC CC CC CC CC CC CC CC CC CC CC CC CC  ŒŒŒŒŒŒŒŒŒŒŒŒŒŒŒŒ
  0000000140017239: CC CC CC CC CC CC CC CC CC CC CC CC CC CC CC CC  ŒŒŒŒŒŒŒŒŒŒŒŒŒŒŒŒ
  0000000140017249: CC CC CC CC CC CC CC CC CC CC CC CC CC CC CC CC  ŒŒŒŒŒŒŒŒŒŒŒŒŒŒŒŒ
  0000000140017259: CC CC CC CC CC CC CC CC CC CC CC CC CC CC CC CC  ŒŒŒŒŒŒŒŒŒŒŒŒŒŒŒŒ
  0000000140017269: CC CC CC CC CC CC CC CC CC CC CC CC CC CC CC CC  ŒŒŒŒŒŒŒŒŒŒŒŒŒŒŒŒ
  0000000140017279: CC CC CC CC CC CC CC CC CC CC CC CC CC CC CC CC  ŒŒŒŒŒŒŒŒŒŒŒŒŒŒŒŒ
  0000000140017289: CC CC CC CC CC CC CC CC CC CC CC CC CC CC CC CC  ŒŒŒŒŒŒŒŒŒŒŒŒŒŒŒŒ
  0000000140017299: CC CC CC CC CC CC CC CC CC CC CC CC CC CC CC CC  ŒŒŒŒŒŒŒŒŒŒŒŒŒŒŒŒ
  00000001400172A9: CC CC CC CC CC CC CC CC CC CC CC CC CC CC CC CC  ŒŒŒŒŒŒŒŒŒŒŒŒŒŒŒŒ
  00000001400172B9: CC CC CC CC CC CC CC CC CC CC CC CC CC CC CC CC  ŒŒŒŒŒŒŒŒŒŒŒŒŒŒŒŒ
  00000001400172C9: CC CC CC CC CC CC CC CC CC CC CC CC CC CC CC CC  ŒŒŒŒŒŒŒŒŒŒŒŒŒŒŒŒ
  00000001400172D9: CC CC CC CC CC CC CC CC CC CC CC CC CC CC CC CC  ŒŒŒŒŒŒŒŒŒŒŒŒŒŒŒŒ
  00000001400172E9: CC CC CC CC CC CC CC CC CC CC CC CC CC CC CC CC  ŒŒŒŒŒŒŒŒŒŒŒŒŒŒŒŒ
  00000001400172F9: CC CC CC CC CC CC CC CC CC CC CC CC CC CC CC CC  ŒŒŒŒŒŒŒŒŒŒŒŒŒŒŒŒ
  0000000140017309: CC CC CC CC CC CC CC CC CC CC CC CC CC CC CC CC  ŒŒŒŒŒŒŒŒŒŒŒŒŒŒŒŒ
  0000000140017319: CC CC CC CC CC CC CC CC CC CC CC CC CC CC CC CC  ŒŒŒŒŒŒŒŒŒŒŒŒŒŒŒŒ
  0000000140017329: CC CC CC CC CC CC CC                             ŒŒŒŒŒŒŒ
  0000000140017330: CC                 int         3
  0000000140017331: CC                 int         3
  0000000140017332: CC                 int         3
  0000000140017333: CC                 int         3
  0000000140017334: CC                 int         3
  0000000140017335: CC                 int         3
  0000000140017336: 66 66 0F 1F 84 00  nop         word ptr [rax+rax]
                    00 00 00 00
_guard_dispatch_icall_nop:
  0000000140017340: FF E0              jmp         rax
  0000000140017342: CC CC CC CC CC CC CC CC CC CC CC CC CC CC        ŒŒŒŒŒŒŒŒŒŒŒŒŒŒ
  0000000140017350: CC                 int         3
  0000000140017351: CC                 int         3
  0000000140017352: CC                 int         3
  0000000140017353: CC                 int         3
  0000000140017354: CC                 int         3
  0000000140017355: CC                 int         3
  0000000140017356: 66 66 0F 1F 84 00  nop         word ptr [rax+rax]
                    00 00 00 00
_guard_xfg_dispatch_icall_nop:
  0000000140017360: FF 25 BA BC 00 00  jmp         qword ptr [__guard_dispatch_icall_fptr]
  0000000140017366: CC CC CC CC CC CC CC CC CC CC CC CC CC CC CC CC  ŒŒŒŒŒŒŒŒŒŒŒŒŒŒŒŒ
  0000000140017376: CC CC CC CC CC CC CC CC CC CC CC CC CC CC CC CC  ŒŒŒŒŒŒŒŒŒŒŒŒŒŒŒŒ
  0000000140017386: CC CC CC CC CC CC CC CC CC CC CC CC CC CC CC CC  ŒŒŒŒŒŒŒŒŒŒŒŒŒŒŒŒ
  0000000140017396: CC CC CC CC CC CC CC CC CC CC CC CC CC CC CC CC  ŒŒŒŒŒŒŒŒŒŒŒŒŒŒŒŒ
  00000001400173A6: CC CC CC CC CC CC CC CC CC CC CC CC CC CC CC CC  ŒŒŒŒŒŒŒŒŒŒŒŒŒŒŒŒ
  00000001400173B6: CC CC CC CC CC CC CC CC CC CC CC CC CC CC CC CC  ŒŒŒŒŒŒŒŒŒŒŒŒŒŒŒŒ
  00000001400173C6: CC CC CC CC CC CC CC CC CC CC CC CC CC CC CC CC  ŒŒŒŒŒŒŒŒŒŒŒŒŒŒŒŒ
  00000001400173D6: CC CC CC CC CC CC CC CC CC CC CC CC CC CC CC CC  ŒŒŒŒŒŒŒŒŒŒŒŒŒŒŒŒ
  00000001400173E6: CC CC CC CC CC CC CC CC CC CC CC CC CC CC CC CC  ŒŒŒŒŒŒŒŒŒŒŒŒŒŒŒŒ
  00000001400173F6: CC CC CC CC CC CC CC CC CC CC CC CC CC CC CC CC  ŒŒŒŒŒŒŒŒŒŒŒŒŒŒŒŒ
  0000000140017406: CC CC CC CC CC CC CC CC CC CC CC CC CC CC CC CC  ŒŒŒŒŒŒŒŒŒŒŒŒŒŒŒŒ
  0000000140017416: CC CC CC CC CC CC CC CC CC CC CC CC CC CC CC CC  ŒŒŒŒŒŒŒŒŒŒŒŒŒŒŒŒ
  0000000140017426: CC CC CC CC CC CC CC CC CC CC CC CC CC CC CC CC  ŒŒŒŒŒŒŒŒŒŒŒŒŒŒŒŒ
  0000000140017436: CC CC CC CC CC CC CC CC CC CC CC CC CC CC CC CC  ŒŒŒŒŒŒŒŒŒŒŒŒŒŒŒŒ
  0000000140017446: CC CC CC CC CC CC CC CC CC CC CC CC CC CC CC CC  ŒŒŒŒŒŒŒŒŒŒŒŒŒŒŒŒ
  0000000140017456: CC CC CC CC CC CC CC CC CC CC CC CC CC CC CC CC  ŒŒŒŒŒŒŒŒŒŒŒŒŒŒŒŒ
  0000000140017466: CC CC CC CC CC CC CC CC CC CC CC CC CC CC CC CC  ŒŒŒŒŒŒŒŒŒŒŒŒŒŒŒŒ
  0000000140017476: CC CC CC CC CC CC CC CC CC CC CC CC CC CC CC CC  ŒŒŒŒŒŒŒŒŒŒŒŒŒŒŒŒ
  0000000140017486: CC CC CC CC CC CC CC CC CC CC CC CC CC CC CC CC  ŒŒŒŒŒŒŒŒŒŒŒŒŒŒŒŒ
  0000000140017496: CC CC CC CC CC CC CC CC CC CC CC CC CC CC CC CC  ŒŒŒŒŒŒŒŒŒŒŒŒŒŒŒŒ
  00000001400174A6: CC CC CC CC CC CC CC CC CC CC CC CC CC CC CC CC  ŒŒŒŒŒŒŒŒŒŒŒŒŒŒŒŒ
  00000001400174B6: CC CC CC CC CC CC CC CC CC CC CC CC CC CC CC CC  ŒŒŒŒŒŒŒŒŒŒŒŒŒŒŒŒ
  00000001400174C6: CC CC CC CC CC CC CC CC CC CC CC CC CC CC CC CC  ŒŒŒŒŒŒŒŒŒŒŒŒŒŒŒŒ
  00000001400174D6: CC CC CC CC CC CC CC CC CC CC CC CC CC CC CC CC  ŒŒŒŒŒŒŒŒŒŒŒŒŒŒŒŒ
  00000001400174E6: CC CC CC CC CC CC CC CC CC CC CC CC CC CC CC CC  ŒŒŒŒŒŒŒŒŒŒŒŒŒŒŒŒ
  00000001400174F6: CC CC CC CC CC CC CC CC CC CC CC CC CC CC CC CC  ŒŒŒŒŒŒŒŒŒŒŒŒŒŒŒŒ
  0000000140017506: CC CC CC CC CC CC CC CC CC CC CC CC CC CC CC CC  ŒŒŒŒŒŒŒŒŒŒŒŒŒŒŒŒ
  0000000140017516: CC CC CC CC CC CC CC CC CC CC CC CC CC CC CC CC  ŒŒŒŒŒŒŒŒŒŒŒŒŒŒŒŒ
  0000000140017526: CC CC CC CC CC CC CC CC CC CC CC CC CC CC CC CC  ŒŒŒŒŒŒŒŒŒŒŒŒŒŒŒŒ
  0000000140017536: CC CC CC CC CC CC CC CC CC CC CC CC CC CC CC CC  ŒŒŒŒŒŒŒŒŒŒŒŒŒŒŒŒ
  0000000140017546: CC CC CC CC CC CC CC CC CC CC CC CC CC CC CC CC  ŒŒŒŒŒŒŒŒŒŒŒŒŒŒŒŒ
  0000000140017556: CC CC CC CC CC CC CC CC CC CC CC CC CC CC CC CC  ŒŒŒŒŒŒŒŒŒŒŒŒŒŒŒŒ
  0000000140017566: CC CC CC CC CC CC CC CC CC CC CC CC CC CC CC CC  ŒŒŒŒŒŒŒŒŒŒŒŒŒŒŒŒ
  0000000140017576: CC CC CC CC CC CC CC CC CC CC CC CC CC CC CC CC  ŒŒŒŒŒŒŒŒŒŒŒŒŒŒŒŒ
  0000000140017586: CC CC CC CC CC CC CC CC CC CC CC CC CC CC CC CC  ŒŒŒŒŒŒŒŒŒŒŒŒŒŒŒŒ
  0000000140017596: CC CC CC CC CC CC CC CC CC CC CC CC CC CC CC CC  ŒŒŒŒŒŒŒŒŒŒŒŒŒŒŒŒ
  00000001400175A6: CC CC CC CC CC CC CC CC CC CC CC CC CC CC CC CC  ŒŒŒŒŒŒŒŒŒŒŒŒŒŒŒŒ
  00000001400175B6: CC CC CC CC CC CC CC CC CC CC CC CC CC CC CC CC  ŒŒŒŒŒŒŒŒŒŒŒŒŒŒŒŒ
  00000001400175C6: CC CC CC CC CC CC CC CC CC CC CC CC CC CC CC CC  ŒŒŒŒŒŒŒŒŒŒŒŒŒŒŒŒ
  00000001400175D6: CC CC CC CC CC CC CC CC CC CC CC CC CC CC CC CC  ŒŒŒŒŒŒŒŒŒŒŒŒŒŒŒŒ
  00000001400175E6: CC CC CC CC CC CC CC CC CC CC CC CC CC CC CC CC  ŒŒŒŒŒŒŒŒŒŒŒŒŒŒŒŒ
  00000001400175F6: CC CC CC CC CC CC CC CC CC CC CC CC CC CC CC CC  ŒŒŒŒŒŒŒŒŒŒŒŒŒŒŒŒ
  0000000140017606: CC CC CC CC CC CC CC CC CC CC CC CC CC CC CC CC  ŒŒŒŒŒŒŒŒŒŒŒŒŒŒŒŒ
  0000000140017616: CC CC CC CC CC CC CC CC CC CC CC CC CC CC CC CC  ŒŒŒŒŒŒŒŒŒŒŒŒŒŒŒŒ
  0000000140017626: CC CC CC CC CC CC CC CC CC CC CC CC CC CC CC CC  ŒŒŒŒŒŒŒŒŒŒŒŒŒŒŒŒ
  0000000140017636: CC CC CC CC CC CC CC CC CC CC CC CC CC CC CC CC  ŒŒŒŒŒŒŒŒŒŒŒŒŒŒŒŒ
  0000000140017646: CC CC CC CC CC CC CC CC CC CC CC CC CC CC CC CC  ŒŒŒŒŒŒŒŒŒŒŒŒŒŒŒŒ
  0000000140017656: CC CC CC CC CC CC CC CC CC CC CC CC CC CC CC CC  ŒŒŒŒŒŒŒŒŒŒŒŒŒŒŒŒ
  0000000140017666: CC CC CC CC CC CC CC CC CC CC CC CC CC CC CC CC  ŒŒŒŒŒŒŒŒŒŒŒŒŒŒŒŒ
  0000000140017676: CC CC CC CC CC CC CC CC CC CC CC CC CC CC CC CC  ŒŒŒŒŒŒŒŒŒŒŒŒŒŒŒŒ
  0000000140017686: CC CC CC CC CC CC CC CC CC CC CC CC CC CC CC CC  ŒŒŒŒŒŒŒŒŒŒŒŒŒŒŒŒ
  0000000140017696: CC CC CC CC CC CC CC CC CC CC CC CC CC CC CC CC  ŒŒŒŒŒŒŒŒŒŒŒŒŒŒŒŒ
  00000001400176A6: CC CC CC CC CC CC CC CC CC CC CC CC CC CC CC CC  ŒŒŒŒŒŒŒŒŒŒŒŒŒŒŒŒ
  00000001400176B6: CC CC CC CC CC CC CC CC CC CC CC CC CC CC CC CC  ŒŒŒŒŒŒŒŒŒŒŒŒŒŒŒŒ
  00000001400176C6: CC CC CC CC CC CC CC CC CC CC CC CC CC CC CC CC  ŒŒŒŒŒŒŒŒŒŒŒŒŒŒŒŒ
  00000001400176D6: CC CC CC CC CC CC CC CC CC CC CC CC CC CC CC CC  ŒŒŒŒŒŒŒŒŒŒŒŒŒŒŒŒ
  00000001400176E6: CC CC CC CC CC CC CC CC CC CC CC CC CC CC CC CC  ŒŒŒŒŒŒŒŒŒŒŒŒŒŒŒŒ
  00000001400176F6: CC CC CC CC CC CC CC CC CC CC CC CC CC CC CC CC  ŒŒŒŒŒŒŒŒŒŒŒŒŒŒŒŒ
  0000000140017706: CC CC CC CC CC CC CC CC CC CC CC CC CC CC CC CC  ŒŒŒŒŒŒŒŒŒŒŒŒŒŒŒŒ
  0000000140017716: CC CC CC CC CC CC CC CC CC CC CC CC CC CC CC CC  ŒŒŒŒŒŒŒŒŒŒŒŒŒŒŒŒ
  0000000140017726: CC CC CC CC CC CC CC CC CC CC CC CC CC CC CC CC  ŒŒŒŒŒŒŒŒŒŒŒŒŒŒŒŒ
  0000000140017736: CC CC CC CC CC CC CC CC CC CC CC CC CC CC CC CC  ŒŒŒŒŒŒŒŒŒŒŒŒŒŒŒŒ
  0000000140017746: CC CC CC CC CC CC CC CC CC CC CC CC CC CC CC CC  ŒŒŒŒŒŒŒŒŒŒŒŒŒŒŒŒ
  0000000140017756: CC CC CC CC CC CC CC CC CC CC CC CC CC CC CC CC  ŒŒŒŒŒŒŒŒŒŒŒŒŒŒŒŒ
  0000000140017766: CC CC CC CC CC CC CC CC CC CC CC CC CC CC CC CC  ŒŒŒŒŒŒŒŒŒŒŒŒŒŒŒŒ
  0000000140017776: CC CC CC CC CC CC CC CC CC CC CC CC CC CC CC CC  ŒŒŒŒŒŒŒŒŒŒŒŒŒŒŒŒ
  0000000140017786: CC CC CC CC CC CC CC CC CC CC CC CC CC CC CC CC  ŒŒŒŒŒŒŒŒŒŒŒŒŒŒŒŒ
  0000000140017796: CC CC CC CC CC CC CC CC CC CC CC CC CC CC CC CC  ŒŒŒŒŒŒŒŒŒŒŒŒŒŒŒŒ
  00000001400177A6: CC CC CC CC CC CC CC CC CC CC CC CC CC CC CC CC  ŒŒŒŒŒŒŒŒŒŒŒŒŒŒŒŒ
  00000001400177B6: CC CC CC CC CC CC CC CC CC CC CC CC CC CC CC CC  ŒŒŒŒŒŒŒŒŒŒŒŒŒŒŒŒ
  00000001400177C6: CC CC CC CC CC CC CC CC CC CC CC CC CC CC CC CC  ŒŒŒŒŒŒŒŒŒŒŒŒŒŒŒŒ
  00000001400177D6: CC CC CC CC CC CC CC CC CC CC CC CC CC CC CC CC  ŒŒŒŒŒŒŒŒŒŒŒŒŒŒŒŒ
  00000001400177E6: CC CC CC CC CC CC CC CC CC CC CC CC CC CC CC CC  ŒŒŒŒŒŒŒŒŒŒŒŒŒŒŒŒ
  00000001400177F6: CC CC CC CC CC CC CC CC CC CC CC CC CC CC CC CC  ŒŒŒŒŒŒŒŒŒŒŒŒŒŒŒŒ
  0000000140017806: CC CC CC CC CC CC CC CC CC CC CC CC CC CC CC CC  ŒŒŒŒŒŒŒŒŒŒŒŒŒŒŒŒ
  0000000140017816: CC CC CC CC CC CC CC CC CC CC CC CC CC CC CC CC  ŒŒŒŒŒŒŒŒŒŒŒŒŒŒŒŒ
  0000000140017826: CC CC CC CC CC CC CC CC CC CC CC CC CC CC CC CC  ŒŒŒŒŒŒŒŒŒŒŒŒŒŒŒŒ
  0000000140017836: CC CC CC CC CC CC CC CC CC CC CC CC CC CC CC CC  ŒŒŒŒŒŒŒŒŒŒŒŒŒŒŒŒ
  0000000140017846: CC CC CC CC CC CC CC CC CC CC CC CC CC CC CC CC  ŒŒŒŒŒŒŒŒŒŒŒŒŒŒŒŒ
  0000000140017856: CC CC CC CC CC CC CC CC CC CC CC CC CC CC CC CC  ŒŒŒŒŒŒŒŒŒŒŒŒŒŒŒŒ
  0000000140017866: CC CC CC CC CC CC CC CC CC CC CC CC CC CC CC CC  ŒŒŒŒŒŒŒŒŒŒŒŒŒŒŒŒ
  0000000140017876: CC CC CC CC CC CC CC CC CC CC CC CC CC CC CC CC  ŒŒŒŒŒŒŒŒŒŒŒŒŒŒŒŒ
  0000000140017886: CC CC CC CC CC CC CC CC CC CC CC CC CC CC CC CC  ŒŒŒŒŒŒŒŒŒŒŒŒŒŒŒŒ
  0000000140017896: CC CC CC CC CC CC CC CC CC CC CC CC CC CC CC CC  ŒŒŒŒŒŒŒŒŒŒŒŒŒŒŒŒ
  00000001400178A6: CC CC CC CC CC CC CC CC CC CC CC CC CC CC CC CC  ŒŒŒŒŒŒŒŒŒŒŒŒŒŒŒŒ
  00000001400178B6: CC CC CC CC CC CC CC CC CC CC CC CC CC CC CC CC  ŒŒŒŒŒŒŒŒŒŒŒŒŒŒŒŒ
  00000001400178C6: CC CC CC CC CC CC CC CC CC CC CC CC CC CC CC CC  ŒŒŒŒŒŒŒŒŒŒŒŒŒŒŒŒ
  00000001400178D6: CC CC CC CC CC CC CC CC CC CC CC CC CC CC CC CC  ŒŒŒŒŒŒŒŒŒŒŒŒŒŒŒŒ
  00000001400178E6: CC CC CC CC CC CC CC CC CC CC CC CC CC CC CC CC  ŒŒŒŒŒŒŒŒŒŒŒŒŒŒŒŒ
  00000001400178F6: CC CC CC CC CC CC CC CC CC CC CC CC CC CC CC CC  ŒŒŒŒŒŒŒŒŒŒŒŒŒŒŒŒ
  0000000140017906: CC CC CC CC CC CC CC CC CC CC CC CC CC CC CC CC  ŒŒŒŒŒŒŒŒŒŒŒŒŒŒŒŒ
  0000000140017916: CC CC CC CC CC CC CC CC CC CC CC CC CC CC CC CC  ŒŒŒŒŒŒŒŒŒŒŒŒŒŒŒŒ
  0000000140017926: CC CC CC CC CC CC CC CC CC CC CC CC CC CC CC CC  ŒŒŒŒŒŒŒŒŒŒŒŒŒŒŒŒ
  0000000140017936: CC CC CC CC CC CC CC CC CC CC CC CC CC CC CC CC  ŒŒŒŒŒŒŒŒŒŒŒŒŒŒŒŒ
  0000000140017946: CC CC CC CC CC CC CC CC CC CC CC CC CC CC CC CC  ŒŒŒŒŒŒŒŒŒŒŒŒŒŒŒŒ
  0000000140017956: CC CC CC CC CC CC CC CC CC CC CC CC CC CC CC CC  ŒŒŒŒŒŒŒŒŒŒŒŒŒŒŒŒ
  0000000140017966: CC CC CC CC CC CC CC CC CC CC CC CC CC CC CC CC  ŒŒŒŒŒŒŒŒŒŒŒŒŒŒŒŒ
  0000000140017976: CC CC CC CC CC CC CC CC CC CC CC CC CC CC CC CC  ŒŒŒŒŒŒŒŒŒŒŒŒŒŒŒŒ
  0000000140017986: CC CC CC CC CC CC CC CC CC CC CC CC CC CC CC CC  ŒŒŒŒŒŒŒŒŒŒŒŒŒŒŒŒ
  0000000140017996: CC CC CC CC CC CC CC CC CC CC CC CC CC CC CC CC  ŒŒŒŒŒŒŒŒŒŒŒŒŒŒŒŒ
  00000001400179A6: CC CC CC CC CC CC CC CC CC CC CC CC CC CC CC CC  ŒŒŒŒŒŒŒŒŒŒŒŒŒŒŒŒ
  00000001400179B6: CC CC CC CC CC CC CC CC CC CC CC CC CC CC CC CC  ŒŒŒŒŒŒŒŒŒŒŒŒŒŒŒŒ
  00000001400179C6: CC CC CC CC CC CC CC CC CC CC CC CC CC CC CC CC  ŒŒŒŒŒŒŒŒŒŒŒŒŒŒŒŒ
  00000001400179D6: CC CC CC CC CC CC CC CC CC CC CC CC CC CC CC CC  ŒŒŒŒŒŒŒŒŒŒŒŒŒŒŒŒ
  00000001400179E6: CC CC CC CC CC CC CC CC CC CC CC CC CC CC CC CC  ŒŒŒŒŒŒŒŒŒŒŒŒŒŒŒŒ
  00000001400179F6: CC CC CC CC CC CC CC CC CC CC CC CC CC CC CC CC  ŒŒŒŒŒŒŒŒŒŒŒŒŒŒŒŒ
  0000000140017A06: CC CC CC CC CC CC CC CC CC CC CC CC CC CC CC CC  ŒŒŒŒŒŒŒŒŒŒŒŒŒŒŒŒ
  0000000140017A16: CC CC CC CC CC CC CC CC CC CC CC CC CC CC CC CC  ŒŒŒŒŒŒŒŒŒŒŒŒŒŒŒŒ
  0000000140017A26: CC CC CC CC CC CC CC CC CC CC CC CC CC CC CC CC  ŒŒŒŒŒŒŒŒŒŒŒŒŒŒŒŒ
  0000000140017A36: CC CC CC CC CC CC CC CC CC CC CC CC CC CC CC CC  ŒŒŒŒŒŒŒŒŒŒŒŒŒŒŒŒ
  0000000140017A46: CC CC CC CC CC CC CC CC CC CC CC CC CC CC CC CC  ŒŒŒŒŒŒŒŒŒŒŒŒŒŒŒŒ
  0000000140017A56: CC CC CC CC CC CC CC CC CC CC CC CC CC CC CC CC  ŒŒŒŒŒŒŒŒŒŒŒŒŒŒŒŒ
  0000000140017A66: CC CC CC CC CC CC CC CC CC CC CC CC CC CC CC CC  ŒŒŒŒŒŒŒŒŒŒŒŒŒŒŒŒ
  0000000140017A76: CC CC CC CC CC CC CC CC CC CC CC CC CC CC CC CC  ŒŒŒŒŒŒŒŒŒŒŒŒŒŒŒŒ
  0000000140017A86: CC CC CC CC CC CC CC CC CC CC CC CC CC CC CC CC  ŒŒŒŒŒŒŒŒŒŒŒŒŒŒŒŒ
  0000000140017A96: CC CC CC CC CC CC CC CC CC CC CC CC CC CC CC CC  ŒŒŒŒŒŒŒŒŒŒŒŒŒŒŒŒ
  0000000140017AA6: CC CC CC CC CC CC CC CC CC CC CC CC CC CC CC CC  ŒŒŒŒŒŒŒŒŒŒŒŒŒŒŒŒ
  0000000140017AB6: CC CC CC CC CC CC CC CC CC CC CC CC CC CC CC CC  ŒŒŒŒŒŒŒŒŒŒŒŒŒŒŒŒ
  0000000140017AC6: CC CC CC CC CC CC CC CC CC CC CC CC CC CC CC CC  ŒŒŒŒŒŒŒŒŒŒŒŒŒŒŒŒ
  0000000140017AD6: CC CC CC CC CC CC CC CC CC CC CC CC CC CC CC CC  ŒŒŒŒŒŒŒŒŒŒŒŒŒŒŒŒ
  0000000140017AE6: CC CC CC CC CC CC CC CC CC CC CC CC CC CC CC CC  ŒŒŒŒŒŒŒŒŒŒŒŒŒŒŒŒ
  0000000140017AF6: CC CC CC CC CC CC CC CC CC CC CC CC CC CC CC CC  ŒŒŒŒŒŒŒŒŒŒŒŒŒŒŒŒ
  0000000140017B06: CC CC CC CC CC CC CC CC CC CC CC CC CC CC CC CC  ŒŒŒŒŒŒŒŒŒŒŒŒŒŒŒŒ
  0000000140017B16: CC CC CC CC CC CC CC CC CC CC CC CC CC CC CC CC  ŒŒŒŒŒŒŒŒŒŒŒŒŒŒŒŒ
  0000000140017B26: CC CC CC CC CC CC CC CC CC CC CC CC CC CC CC CC  ŒŒŒŒŒŒŒŒŒŒŒŒŒŒŒŒ
  0000000140017B36: CC CC CC CC CC CC CC CC CC CC CC CC CC CC CC CC  ŒŒŒŒŒŒŒŒŒŒŒŒŒŒŒŒ
  0000000140017B46: CC CC CC CC CC CC CC CC CC CC CC CC CC CC CC CC  ŒŒŒŒŒŒŒŒŒŒŒŒŒŒŒŒ
  0000000140017B56: CC CC CC CC CC CC CC CC CC CC CC CC CC CC CC CC  ŒŒŒŒŒŒŒŒŒŒŒŒŒŒŒŒ
  0000000140017B66: CC CC CC CC CC CC CC CC CC CC CC CC CC CC CC CC  ŒŒŒŒŒŒŒŒŒŒŒŒŒŒŒŒ
  0000000140017B76: CC CC CC CC CC CC CC CC CC CC CC CC CC CC CC CC  ŒŒŒŒŒŒŒŒŒŒŒŒŒŒŒŒ
  0000000140017B86: CC CC CC CC CC CC CC CC CC CC CC CC CC CC CC CC  ŒŒŒŒŒŒŒŒŒŒŒŒŒŒŒŒ
  0000000140017B96: CC CC CC CC CC CC CC CC CC CC CC CC CC CC CC CC  ŒŒŒŒŒŒŒŒŒŒŒŒŒŒŒŒ
  0000000140017BA6: CC CC CC CC CC CC CC CC CC CC CC CC CC CC CC CC  ŒŒŒŒŒŒŒŒŒŒŒŒŒŒŒŒ
  0000000140017BB6: CC CC CC CC CC CC CC CC CC CC CC CC CC CC CC CC  ŒŒŒŒŒŒŒŒŒŒŒŒŒŒŒŒ
  0000000140017BC6: CC CC CC CC CC CC CC CC CC CC CC CC CC CC CC CC  ŒŒŒŒŒŒŒŒŒŒŒŒŒŒŒŒ
  0000000140017BD6: CC CC CC CC CC CC CC CC CC CC CC CC CC CC CC CC  ŒŒŒŒŒŒŒŒŒŒŒŒŒŒŒŒ
  0000000140017BE6: CC CC CC CC CC CC CC CC CC CC CC CC CC CC CC CC  ŒŒŒŒŒŒŒŒŒŒŒŒŒŒŒŒ
  0000000140017BF6: CC CC CC CC CC CC CC CC CC CC CC CC CC CC CC CC  ŒŒŒŒŒŒŒŒŒŒŒŒŒŒŒŒ
  0000000140017C06: CC CC CC CC CC CC CC CC CC CC CC CC CC CC CC CC  ŒŒŒŒŒŒŒŒŒŒŒŒŒŒŒŒ
  0000000140017C16: CC CC CC CC CC CC CC CC CC CC CC CC CC CC CC CC  ŒŒŒŒŒŒŒŒŒŒŒŒŒŒŒŒ
  0000000140017C26: CC CC CC CC CC CC CC CC CC CC CC CC CC CC CC CC  ŒŒŒŒŒŒŒŒŒŒŒŒŒŒŒŒ
  0000000140017C36: CC CC CC CC CC CC CC CC CC CC CC CC CC CC CC CC  ŒŒŒŒŒŒŒŒŒŒŒŒŒŒŒŒ
  0000000140017C46: CC CC CC CC CC CC CC CC CC CC CC CC CC CC CC CC  ŒŒŒŒŒŒŒŒŒŒŒŒŒŒŒŒ
  0000000140017C56: CC CC CC CC CC CC CC CC CC CC CC CC CC CC CC CC  ŒŒŒŒŒŒŒŒŒŒŒŒŒŒŒŒ
  0000000140017C66: CC CC CC CC CC CC CC CC CC CC CC CC CC CC CC CC  ŒŒŒŒŒŒŒŒŒŒŒŒŒŒŒŒ
  0000000140017C76: CC CC CC CC CC CC CC CC CC CC CC CC CC CC CC CC  ŒŒŒŒŒŒŒŒŒŒŒŒŒŒŒŒ
  0000000140017C86: CC CC CC CC CC CC CC CC CC CC CC CC CC CC CC CC  ŒŒŒŒŒŒŒŒŒŒŒŒŒŒŒŒ
  0000000140017C96: CC CC CC CC CC CC CC CC CC CC CC CC CC CC CC CC  ŒŒŒŒŒŒŒŒŒŒŒŒŒŒŒŒ
  0000000140017CA6: CC CC CC CC CC CC CC CC CC CC CC CC CC CC CC CC  ŒŒŒŒŒŒŒŒŒŒŒŒŒŒŒŒ
  0000000140017CB6: CC CC CC CC CC CC CC CC CC CC CC CC CC CC CC CC  ŒŒŒŒŒŒŒŒŒŒŒŒŒŒŒŒ
  0000000140017CC6: CC CC CC CC CC CC CC CC CC CC CC CC CC CC CC CC  ŒŒŒŒŒŒŒŒŒŒŒŒŒŒŒŒ
  0000000140017CD6: CC CC CC CC CC CC CC CC CC CC CC CC CC CC CC CC  ŒŒŒŒŒŒŒŒŒŒŒŒŒŒŒŒ
  0000000140017CE6: CC CC CC CC CC CC CC CC CC CC CC CC CC CC CC CC  ŒŒŒŒŒŒŒŒŒŒŒŒŒŒŒŒ
  0000000140017CF6: CC CC CC CC CC CC CC CC CC CC CC CC CC CC CC CC  ŒŒŒŒŒŒŒŒŒŒŒŒŒŒŒŒ
  0000000140017D06: CC CC CC CC CC CC CC CC CC CC CC CC CC CC CC CC  ŒŒŒŒŒŒŒŒŒŒŒŒŒŒŒŒ
  0000000140017D16: CC CC CC CC CC CC CC CC CC CC CC CC CC CC CC CC  ŒŒŒŒŒŒŒŒŒŒŒŒŒŒŒŒ
  0000000140017D26: CC CC CC CC CC CC CC CC CC CC CC CC CC CC CC CC  ŒŒŒŒŒŒŒŒŒŒŒŒŒŒŒŒ
  0000000140017D36: CC CC CC CC CC CC CC CC CC CC CC CC CC CC CC CC  ŒŒŒŒŒŒŒŒŒŒŒŒŒŒŒŒ
  0000000140017D46: CC CC CC CC CC CC CC CC CC CC CC CC CC CC CC CC  ŒŒŒŒŒŒŒŒŒŒŒŒŒŒŒŒ
  0000000140017D56: CC CC CC CC CC CC CC CC CC CC CC CC CC CC CC CC  ŒŒŒŒŒŒŒŒŒŒŒŒŒŒŒŒ
  0000000140017D66: CC CC CC CC CC CC CC CC CC CC CC CC CC CC CC CC  ŒŒŒŒŒŒŒŒŒŒŒŒŒŒŒŒ
  0000000140017D76: CC CC CC CC CC CC CC CC CC CC CC CC CC CC CC CC  ŒŒŒŒŒŒŒŒŒŒŒŒŒŒŒŒ
  0000000140017D86: CC CC CC CC CC CC CC CC CC CC CC CC CC CC CC CC  ŒŒŒŒŒŒŒŒŒŒŒŒŒŒŒŒ
  0000000140017D96: CC CC CC CC CC CC CC CC CC CC CC CC CC CC CC CC  ŒŒŒŒŒŒŒŒŒŒŒŒŒŒŒŒ
  0000000140017DA6: CC CC CC CC CC CC CC CC CC CC CC CC CC CC CC CC  ŒŒŒŒŒŒŒŒŒŒŒŒŒŒŒŒ
  0000000140017DB6: CC CC CC CC CC CC CC CC CC CC CC CC CC CC CC CC  ŒŒŒŒŒŒŒŒŒŒŒŒŒŒŒŒ
  0000000140017DC6: CC CC CC CC CC CC CC CC CC CC CC CC CC CC CC CC  ŒŒŒŒŒŒŒŒŒŒŒŒŒŒŒŒ
  0000000140017DD6: CC CC CC CC CC CC CC CC CC CC CC CC CC CC CC CC  ŒŒŒŒŒŒŒŒŒŒŒŒŒŒŒŒ
  0000000140017DE6: CC CC CC CC CC CC CC CC CC CC CC CC CC CC CC CC  ŒŒŒŒŒŒŒŒŒŒŒŒŒŒŒŒ
  0000000140017DF6: CC CC CC CC CC CC CC CC CC CC CC CC CC CC CC CC  ŒŒŒŒŒŒŒŒŒŒŒŒŒŒŒŒ
  0000000140017E06: CC CC CC CC CC CC CC CC CC CC CC CC CC CC CC CC  ŒŒŒŒŒŒŒŒŒŒŒŒŒŒŒŒ
  0000000140017E16: CC CC CC CC CC CC CC CC CC CC CC CC CC CC CC CC  ŒŒŒŒŒŒŒŒŒŒŒŒŒŒŒŒ
  0000000140017E26: CC CC CC CC CC CC CC CC CC CC CC CC CC CC CC CC  ŒŒŒŒŒŒŒŒŒŒŒŒŒŒŒŒ
  0000000140017E36: CC CC CC CC CC CC CC CC CC CC CC CC CC CC CC CC  ŒŒŒŒŒŒŒŒŒŒŒŒŒŒŒŒ
  0000000140017E46: CC CC CC CC CC CC CC CC CC CC CC CC CC CC CC CC  ŒŒŒŒŒŒŒŒŒŒŒŒŒŒŒŒ
  0000000140017E56: CC CC CC CC CC CC CC CC CC CC CC CC CC CC CC CC  ŒŒŒŒŒŒŒŒŒŒŒŒŒŒŒŒ
  0000000140017E66: CC CC CC CC CC CC CC CC CC CC CC CC CC CC CC CC  ŒŒŒŒŒŒŒŒŒŒŒŒŒŒŒŒ
  0000000140017E76: CC CC CC CC CC CC CC CC CC CC CC CC CC CC CC CC  ŒŒŒŒŒŒŒŒŒŒŒŒŒŒŒŒ
  0000000140017E86: CC CC CC CC CC CC CC CC CC CC CC CC CC CC CC CC  ŒŒŒŒŒŒŒŒŒŒŒŒŒŒŒŒ
  0000000140017E96: CC CC CC CC CC CC CC CC CC CC CC CC CC CC CC CC  ŒŒŒŒŒŒŒŒŒŒŒŒŒŒŒŒ
  0000000140017EA6: CC CC CC CC CC CC CC CC CC CC CC CC CC CC CC CC  ŒŒŒŒŒŒŒŒŒŒŒŒŒŒŒŒ
  0000000140017EB6: CC CC CC CC CC CC CC CC CC CC CC CC CC CC CC CC  ŒŒŒŒŒŒŒŒŒŒŒŒŒŒŒŒ
  0000000140017EC6: CC CC CC CC CC CC CC CC CC CC CC CC CC CC CC CC  ŒŒŒŒŒŒŒŒŒŒŒŒŒŒŒŒ
  0000000140017ED6: CC CC CC CC CC CC CC CC CC CC CC CC CC CC CC CC  ŒŒŒŒŒŒŒŒŒŒŒŒŒŒŒŒ
  0000000140017EE6: CC CC CC CC CC CC CC CC CC CC CC CC CC CC CC CC  ŒŒŒŒŒŒŒŒŒŒŒŒŒŒŒŒ
  0000000140017EF6: CC CC CC CC CC CC CC CC CC CC CC CC CC CC CC CC  ŒŒŒŒŒŒŒŒŒŒŒŒŒŒŒŒ
  0000000140017F06: CC CC CC CC CC CC CC CC CC CC CC CC CC CC CC CC  ŒŒŒŒŒŒŒŒŒŒŒŒŒŒŒŒ
  0000000140017F16: CC CC CC CC CC CC CC CC CC CC CC CC CC CC CC CC  ŒŒŒŒŒŒŒŒŒŒŒŒŒŒŒŒ
  0000000140017F26: CC CC CC CC CC CC CC CC CC CC CC CC CC CC CC CC  ŒŒŒŒŒŒŒŒŒŒŒŒŒŒŒŒ
  0000000140017F36: CC CC CC CC CC CC CC CC CC CC CC CC CC CC CC CC  ŒŒŒŒŒŒŒŒŒŒŒŒŒŒŒŒ
  0000000140017F46: CC CC CC CC CC CC CC CC CC CC CC CC CC CC CC CC  ŒŒŒŒŒŒŒŒŒŒŒŒŒŒŒŒ
  0000000140017F56: CC CC CC CC CC CC CC CC CC CC CC CC CC CC CC CC  ŒŒŒŒŒŒŒŒŒŒŒŒŒŒŒŒ
  0000000140017F66: CC CC CC CC CC CC CC CC CC CC CC CC CC CC CC CC  ŒŒŒŒŒŒŒŒŒŒŒŒŒŒŒŒ
  0000000140017F76: CC CC CC CC CC CC CC CC CC CC CC CC CC CC CC CC  ŒŒŒŒŒŒŒŒŒŒŒŒŒŒŒŒ
  0000000140017F86: CC CC CC CC CC CC CC CC CC CC CC CC CC CC CC CC  ŒŒŒŒŒŒŒŒŒŒŒŒŒŒŒŒ
  0000000140017F96: CC CC CC CC CC CC CC CC CC CC CC CC CC CC CC CC  ŒŒŒŒŒŒŒŒŒŒŒŒŒŒŒŒ
  0000000140017FA6: CC CC CC CC CC CC CC CC CC CC CC CC CC CC CC CC  ŒŒŒŒŒŒŒŒŒŒŒŒŒŒŒŒ
  0000000140017FB6: CC CC CC CC CC CC CC CC CC CC CC CC CC CC CC CC  ŒŒŒŒŒŒŒŒŒŒŒŒŒŒŒŒ
  0000000140017FC6: CC CC CC CC CC CC CC CC CC CC CC CC CC CC CC CC  ŒŒŒŒŒŒŒŒŒŒŒŒŒŒŒŒ
  0000000140017FD6: CC CC CC CC CC CC CC CC CC CC CC CC CC CC CC CC  ŒŒŒŒŒŒŒŒŒŒŒŒŒŒŒŒ
  0000000140017FE6: CC CC CC CC CC CC CC CC CC CC CC CC CC CC CC CC  ŒŒŒŒŒŒŒŒŒŒŒŒŒŒŒŒ
  0000000140017FF6: CC CC CC CC CC CC CC CC CC CC CC CC CC CC CC CC  ŒŒŒŒŒŒŒŒŒŒŒŒŒŒŒŒ
  0000000140018006: CC CC CC CC CC CC CC CC CC CC CC CC CC CC CC CC  ŒŒŒŒŒŒŒŒŒŒŒŒŒŒŒŒ
  0000000140018016: CC CC CC CC CC CC CC CC CC CC CC CC CC CC CC CC  ŒŒŒŒŒŒŒŒŒŒŒŒŒŒŒŒ
  0000000140018026: CC CC CC CC CC CC CC CC CC CC CC CC CC CC CC CC  ŒŒŒŒŒŒŒŒŒŒŒŒŒŒŒŒ
  0000000140018036: CC CC CC CC CC CC CC CC CC CC CC CC CC CC CC CC  ŒŒŒŒŒŒŒŒŒŒŒŒŒŒŒŒ
  0000000140018046: CC CC CC CC CC CC CC CC CC CC CC CC CC CC CC CC  ŒŒŒŒŒŒŒŒŒŒŒŒŒŒŒŒ
  0000000140018056: CC CC CC CC CC CC CC CC CC CC CC CC CC CC CC CC  ŒŒŒŒŒŒŒŒŒŒŒŒŒŒŒŒ
  0000000140018066: CC CC CC CC CC CC CC CC CC CC CC CC CC CC CC CC  ŒŒŒŒŒŒŒŒŒŒŒŒŒŒŒŒ
  0000000140018076: CC CC CC CC CC CC CC CC CC CC CC CC CC CC CC CC  ŒŒŒŒŒŒŒŒŒŒŒŒŒŒŒŒ
  0000000140018086: CC CC CC CC CC CC CC CC CC CC CC CC CC CC CC CC  ŒŒŒŒŒŒŒŒŒŒŒŒŒŒŒŒ
  0000000140018096: CC CC CC CC CC CC CC CC CC CC CC CC CC CC CC CC  ŒŒŒŒŒŒŒŒŒŒŒŒŒŒŒŒ
  00000001400180A6: CC CC CC CC CC CC CC CC CC CC CC CC CC CC CC CC  ŒŒŒŒŒŒŒŒŒŒŒŒŒŒŒŒ
  00000001400180B6: CC CC CC CC CC CC CC CC CC CC CC CC CC CC CC CC  ŒŒŒŒŒŒŒŒŒŒŒŒŒŒŒŒ
  00000001400180C6: CC CC CC CC CC CC CC CC CC CC CC CC CC CC CC CC  ŒŒŒŒŒŒŒŒŒŒŒŒŒŒŒŒ
  00000001400180D6: CC CC CC CC CC CC CC CC CC CC CC CC CC CC CC CC  ŒŒŒŒŒŒŒŒŒŒŒŒŒŒŒŒ
  00000001400180E6: CC CC CC CC CC CC CC CC CC CC CC CC CC CC CC CC  ŒŒŒŒŒŒŒŒŒŒŒŒŒŒŒŒ
  00000001400180F6: CC CC CC CC CC CC CC CC CC CC CC CC CC CC CC CC  ŒŒŒŒŒŒŒŒŒŒŒŒŒŒŒŒ
  0000000140018106: CC CC CC CC CC CC CC CC CC CC CC CC CC CC CC CC  ŒŒŒŒŒŒŒŒŒŒŒŒŒŒŒŒ
  0000000140018116: CC CC CC CC CC CC CC CC CC CC CC CC CC CC CC CC  ŒŒŒŒŒŒŒŒŒŒŒŒŒŒŒŒ
  0000000140018126: CC CC CC CC CC CC CC CC CC CC CC CC CC CC CC CC  ŒŒŒŒŒŒŒŒŒŒŒŒŒŒŒŒ
  0000000140018136: CC CC CC CC CC CC CC CC CC CC CC CC CC CC CC CC  ŒŒŒŒŒŒŒŒŒŒŒŒŒŒŒŒ
  0000000140018146: CC CC CC CC CC CC CC CC CC CC CC CC CC CC CC CC  ŒŒŒŒŒŒŒŒŒŒŒŒŒŒŒŒ
  0000000140018156: CC CC CC CC CC CC CC CC CC CC CC CC CC CC CC CC  ŒŒŒŒŒŒŒŒŒŒŒŒŒŒŒŒ
  0000000140018166: CC CC CC CC CC CC CC CC CC CC CC CC CC CC CC CC  ŒŒŒŒŒŒŒŒŒŒŒŒŒŒŒŒ
  0000000140018176: CC CC CC CC CC CC CC CC CC CC CC CC CC CC CC CC  ŒŒŒŒŒŒŒŒŒŒŒŒŒŒŒŒ
  0000000140018186: CC CC CC CC CC CC CC CC CC CC CC CC CC CC CC CC  ŒŒŒŒŒŒŒŒŒŒŒŒŒŒŒŒ
  0000000140018196: CC CC CC CC CC CC CC CC CC CC CC CC CC CC CC CC  ŒŒŒŒŒŒŒŒŒŒŒŒŒŒŒŒ
  00000001400181A6: CC CC CC CC CC CC CC CC CC CC CC CC CC CC CC CC  ŒŒŒŒŒŒŒŒŒŒŒŒŒŒŒŒ
  00000001400181B6: CC CC CC CC CC CC CC CC CC CC CC CC CC CC CC CC  ŒŒŒŒŒŒŒŒŒŒŒŒŒŒŒŒ
  00000001400181C6: CC CC CC CC CC CC CC CC CC CC CC CC CC CC CC CC  ŒŒŒŒŒŒŒŒŒŒŒŒŒŒŒŒ
  00000001400181D6: CC CC CC CC CC CC CC CC CC CC CC CC CC CC CC CC  ŒŒŒŒŒŒŒŒŒŒŒŒŒŒŒŒ
  00000001400181E6: CC CC CC CC CC CC CC CC CC CC CC CC CC CC CC CC  ŒŒŒŒŒŒŒŒŒŒŒŒŒŒŒŒ
  00000001400181F6: CC CC CC CC CC CC CC CC CC CC CC CC CC CC CC CC  ŒŒŒŒŒŒŒŒŒŒŒŒŒŒŒŒ
  0000000140018206: CC CC CC CC CC CC CC CC CC CC CC CC CC CC CC CC  ŒŒŒŒŒŒŒŒŒŒŒŒŒŒŒŒ
  0000000140018216: CC CC CC CC CC CC CC CC CC CC CC CC CC CC CC CC  ŒŒŒŒŒŒŒŒŒŒŒŒŒŒŒŒ
  0000000140018226: CC CC CC CC CC CC CC CC CC CC CC CC CC CC CC CC  ŒŒŒŒŒŒŒŒŒŒŒŒŒŒŒŒ
  0000000140018236: CC CC CC CC CC CC CC CC CC CC CC CC CC CC CC CC  ŒŒŒŒŒŒŒŒŒŒŒŒŒŒŒŒ
  0000000140018246: CC CC CC CC CC CC CC CC CC CC CC CC CC CC CC CC  ŒŒŒŒŒŒŒŒŒŒŒŒŒŒŒŒ
  0000000140018256: CC CC CC CC CC CC CC CC CC CC CC CC CC CC CC CC  ŒŒŒŒŒŒŒŒŒŒŒŒŒŒŒŒ
  0000000140018266: CC CC CC CC CC CC CC CC CC CC CC CC CC CC CC CC  ŒŒŒŒŒŒŒŒŒŒŒŒŒŒŒŒ
  0000000140018276: CC CC CC CC CC CC CC CC CC CC CC CC CC CC CC CC  ŒŒŒŒŒŒŒŒŒŒŒŒŒŒŒŒ
  0000000140018286: CC CC CC CC CC CC CC CC CC CC CC CC CC CC CC CC  ŒŒŒŒŒŒŒŒŒŒŒŒŒŒŒŒ
  0000000140018296: CC CC CC CC CC CC CC CC CC CC CC CC CC CC CC CC  ŒŒŒŒŒŒŒŒŒŒŒŒŒŒŒŒ
  00000001400182A6: CC CC CC CC CC CC CC CC CC CC CC CC CC CC CC CC  ŒŒŒŒŒŒŒŒŒŒŒŒŒŒŒŒ
  00000001400182B6: CC CC CC CC CC CC CC CC CC CC CC CC CC CC CC CC  ŒŒŒŒŒŒŒŒŒŒŒŒŒŒŒŒ
  00000001400182C6: CC CC CC CC CC CC CC CC CC CC CC CC CC CC CC CC  ŒŒŒŒŒŒŒŒŒŒŒŒŒŒŒŒ
  00000001400182D6: CC CC CC CC CC CC CC CC CC CC CC CC CC CC CC CC  ŒŒŒŒŒŒŒŒŒŒŒŒŒŒŒŒ
  00000001400182E6: CC CC CC CC CC CC CC CC CC CC CC CC CC CC CC CC  ŒŒŒŒŒŒŒŒŒŒŒŒŒŒŒŒ
  00000001400182F6: CC CC CC CC CC CC CC CC CC CC CC CC CC CC CC CC  ŒŒŒŒŒŒŒŒŒŒŒŒŒŒŒŒ
  0000000140018306: CC CC CC CC CC CC CC CC CC CC CC CC CC CC CC CC  ŒŒŒŒŒŒŒŒŒŒŒŒŒŒŒŒ
  0000000140018316: CC CC CC CC CC CC CC CC CC CC CC CC CC CC CC CC  ŒŒŒŒŒŒŒŒŒŒŒŒŒŒŒŒ
  0000000140018326: CC CC CC CC CC CC CC CC CC CC CC CC CC CC CC CC  ŒŒŒŒŒŒŒŒŒŒŒŒŒŒŒŒ
  0000000140018336: CC CC CC CC CC CC CC CC CC CC CC CC CC CC CC CC  ŒŒŒŒŒŒŒŒŒŒŒŒŒŒŒŒ
  0000000140018346: CC CC CC CC CC CC CC CC CC CC CC CC CC CC CC CC  ŒŒŒŒŒŒŒŒŒŒŒŒŒŒŒŒ
  0000000140018356: CC CC CC CC CC CC CC CC CC CC CC CC CC CC CC CC  ŒŒŒŒŒŒŒŒŒŒŒŒŒŒŒŒ
  0000000140018366: CC CC CC CC CC CC CC CC CC CC                    ŒŒŒŒŒŒŒŒŒŒ
`__scrt_common_main_seh'::`1'::filt$0:
  0000000140018370: 40 55              push        rbp
  0000000140018372: 48 83 EC 20        sub         rsp,20h
  0000000140018376: 48 8B EA           mov         rbp,rdx
  0000000140018379: 48 89 4D 40        mov         qword ptr [rbp+40h],rcx
  000000014001837D: 48 8B 45 40        mov         rax,qword ptr [rbp+40h]
  0000000140018381: 48 8B 00           mov         rax,qword ptr [rax]
  0000000140018384: 8B 00              mov         eax,dword ptr [rax]
  0000000140018386: 89 45 24           mov         dword ptr [rbp+24h],eax
  0000000140018389: 48 8B 45 40        mov         rax,qword ptr [rbp+40h]
  000000014001838D: 8B 4D 24           mov         ecx,dword ptr [rbp+24h]
  0000000140018390: 48 8B D0           mov         rdx,rax
  0000000140018393: E8 BA 8F FF FF     call        @ILT+845(_seh_filter_exe)
  0000000140018398: 90                 nop
  0000000140018399: 48 83 C4 20        add         rsp,20h
  000000014001839D: 5D                 pop         rbp
  000000014001839E: C3                 ret
  000000014001839F: CC                 int         3
  00000001400183A0: CC CC CC CC CC CC CC CC CC CC CC CC CC CC CC CC  ŒŒŒŒŒŒŒŒŒŒŒŒŒŒŒŒ
`notify_debugger'::`1'::filt$0:
  00000001400183B0: 40 55              push        rbp
  00000001400183B2: 48 83 EC 20        sub         rsp,20h
  00000001400183B6: 48 8B EA           mov         rbp,rdx
  00000001400183B9: 48 8B 01           mov         rax,qword ptr [rcx]
  00000001400183BC: 33 C9              xor         ecx,ecx
  00000001400183BE: 81 38 88 13 6D 40  cmp         dword ptr [rax],406D1388h
  00000001400183C4: 0F 94 C1           sete        cl
  00000001400183C7: 8B C1              mov         eax,ecx
  00000001400183C9: 48 83 C4 20        add         rsp,20h
  00000001400183CD: 5D                 pop         rbp
  00000001400183CE: C3                 ret
  00000001400183CF: CC                 int         3
  00000001400183D0: CC CC CC CC CC CC CC CC CC CC CC CC CC CC CC CC  ŒŒŒŒŒŒŒŒŒŒŒŒŒŒŒŒ
__scrt_is_nonwritable_in_current_image$filt$0:
  00000001400183E0: 40 55              push        rbp
  00000001400183E2: 48 83 EC 20        sub         rsp,20h
  00000001400183E6: 48 8B EA           mov         rbp,rdx
  00000001400183E9: 48 89 4D 48        mov         qword ptr [rbp+48h],rcx
  00000001400183ED: 48 8B 45 48        mov         rax,qword ptr [rbp+48h]
  00000001400183F1: 48 8B 00           mov         rax,qword ptr [rax]
  00000001400183F4: 8B 00              mov         eax,dword ptr [rax]
  00000001400183F6: 89 45 24           mov         dword ptr [rbp+24h],eax
  00000001400183F9: 8B 45 24           mov         eax,dword ptr [rbp+24h]
  00000001400183FC: 3D 05 00 00 C0     cmp         eax,0C0000005h
  0000000140018401: 75 09              jne         000000014001840C
  0000000140018403: C7 45 20 01 00 00  mov         dword ptr [rbp+20h],1
                    00
  000000014001840A: EB 07              jmp         0000000140018413
  000000014001840C: C7 45 20 00 00 00  mov         dword ptr [rbp+20h],0
                    00
  0000000140018413: 8B 45 20           mov         eax,dword ptr [rbp+20h]
  0000000140018416: 48 83 C4 20        add         rsp,20h
  000000014001841A: 5D                 pop         rbp
  000000014001841B: C3                 ret
  000000014001841C: CC                 int         3
  000000014001841D: CC CC CC CC CC CC CC CC CC CC CC CC CC CC CC CC  ŒŒŒŒŒŒŒŒŒŒŒŒŒŒŒŒ
  000000014001842D: CC CC CC CC CC CC CC CC CC CC CC CC CC CC CC CC  ŒŒŒŒŒŒŒŒŒŒŒŒŒŒŒŒ
  000000014001843D: CC CC CC CC CC CC CC CC CC CC CC CC CC CC CC CC  ŒŒŒŒŒŒŒŒŒŒŒŒŒŒŒŒ
  000000014001844D: CC CC CC CC CC CC CC CC CC CC CC CC CC CC CC CC  ŒŒŒŒŒŒŒŒŒŒŒŒŒŒŒŒ
  000000014001845D: CC CC CC CC CC CC CC CC CC CC CC CC CC CC CC CC  ŒŒŒŒŒŒŒŒŒŒŒŒŒŒŒŒ
  000000014001846D: CC CC CC CC CC CC CC CC CC CC CC CC CC CC CC CC  ŒŒŒŒŒŒŒŒŒŒŒŒŒŒŒŒ
  000000014001847D: CC CC CC CC CC CC CC CC CC CC CC CC CC CC CC CC  ŒŒŒŒŒŒŒŒŒŒŒŒŒŒŒŒ
  000000014001848D: CC CC CC CC CC CC CC CC CC CC CC CC CC CC CC CC  ŒŒŒŒŒŒŒŒŒŒŒŒŒŒŒŒ
  000000014001849D: CC CC CC CC CC CC CC CC CC CC CC CC CC CC CC CC  ŒŒŒŒŒŒŒŒŒŒŒŒŒŒŒŒ
  00000001400184AD: CC CC CC CC CC CC CC CC CC CC CC CC CC CC CC CC  ŒŒŒŒŒŒŒŒŒŒŒŒŒŒŒŒ
  00000001400184BD: CC CC CC CC CC CC CC CC CC CC CC CC CC CC CC CC  ŒŒŒŒŒŒŒŒŒŒŒŒŒŒŒŒ
  00000001400184CD: CC CC CC CC CC CC CC CC CC CC CC CC CC CC CC CC  ŒŒŒŒŒŒŒŒŒŒŒŒŒŒŒŒ
  00000001400184DD: CC CC CC CC CC CC CC CC CC CC CC CC CC CC CC CC  ŒŒŒŒŒŒŒŒŒŒŒŒŒŒŒŒ
  00000001400184ED: CC CC CC CC CC CC CC CC CC CC CC CC CC CC CC CC  ŒŒŒŒŒŒŒŒŒŒŒŒŒŒŒŒ
  00000001400184FD: CC CC CC CC CC CC CC CC CC CC CC CC CC CC CC CC  ŒŒŒŒŒŒŒŒŒŒŒŒŒŒŒŒ
  000000014001850D: CC CC CC CC CC CC CC CC CC CC CC CC CC CC CC CC  ŒŒŒŒŒŒŒŒŒŒŒŒŒŒŒŒ
  000000014001851D: CC CC CC CC CC CC CC CC CC CC CC CC CC CC CC CC  ŒŒŒŒŒŒŒŒŒŒŒŒŒŒŒŒ
  000000014001852D: CC CC CC CC CC CC CC CC CC CC CC CC CC CC CC CC  ŒŒŒŒŒŒŒŒŒŒŒŒŒŒŒŒ
  000000014001853D: CC CC CC CC CC CC CC CC CC CC CC CC CC CC CC CC  ŒŒŒŒŒŒŒŒŒŒŒŒŒŒŒŒ
  000000014001854D: CC CC CC CC CC CC CC CC CC CC CC CC CC CC CC CC  ŒŒŒŒŒŒŒŒŒŒŒŒŒŒŒŒ
  000000014001855D: CC CC CC CC CC CC CC CC CC CC CC CC CC CC CC CC  ŒŒŒŒŒŒŒŒŒŒŒŒŒŒŒŒ
  000000014001856D: CC CC CC CC CC CC CC CC CC CC CC CC CC CC CC CC  ŒŒŒŒŒŒŒŒŒŒŒŒŒŒŒŒ
  000000014001857D: CC CC CC CC CC CC CC CC CC CC CC CC CC CC CC CC  ŒŒŒŒŒŒŒŒŒŒŒŒŒŒŒŒ
  000000014001858D: CC CC CC CC CC CC CC CC CC CC CC CC CC CC CC CC  ŒŒŒŒŒŒŒŒŒŒŒŒŒŒŒŒ
  000000014001859D: CC CC CC CC CC CC CC CC CC CC CC CC CC CC CC CC  ŒŒŒŒŒŒŒŒŒŒŒŒŒŒŒŒ
  00000001400185AD: CC CC CC CC CC CC CC CC CC CC CC CC CC CC CC CC  ŒŒŒŒŒŒŒŒŒŒŒŒŒŒŒŒ
  00000001400185BD: CC CC CC CC CC CC CC CC CC CC CC CC CC CC CC CC  ŒŒŒŒŒŒŒŒŒŒŒŒŒŒŒŒ
  00000001400185CD: CC CC CC CC CC CC CC CC CC CC CC CC CC CC CC CC  ŒŒŒŒŒŒŒŒŒŒŒŒŒŒŒŒ
  00000001400185DD: CC CC CC CC CC CC CC CC CC CC CC CC CC CC CC CC  ŒŒŒŒŒŒŒŒŒŒŒŒŒŒŒŒ
  00000001400185ED: CC CC CC CC CC CC CC CC CC CC CC CC CC CC CC CC  ŒŒŒŒŒŒŒŒŒŒŒŒŒŒŒŒ
  00000001400185FD: CC CC CC CC CC CC CC CC CC CC CC CC CC CC CC CC  ŒŒŒŒŒŒŒŒŒŒŒŒŒŒŒŒ
  000000014001860D: CC CC CC CC CC CC CC CC CC CC CC CC CC CC CC CC  ŒŒŒŒŒŒŒŒŒŒŒŒŒŒŒŒ
  000000014001861D: CC CC CC CC CC CC CC CC CC CC CC CC CC CC CC CC  ŒŒŒŒŒŒŒŒŒŒŒŒŒŒŒŒ
  000000014001862D: CC CC CC CC CC CC CC CC CC CC CC CC CC CC CC CC  ŒŒŒŒŒŒŒŒŒŒŒŒŒŒŒŒ
  000000014001863D: CC CC CC CC CC CC CC CC CC CC CC CC CC CC CC CC  ŒŒŒŒŒŒŒŒŒŒŒŒŒŒŒŒ
  000000014001864D: CC CC CC CC CC CC CC CC CC CC CC CC CC CC CC CC  ŒŒŒŒŒŒŒŒŒŒŒŒŒŒŒŒ
  000000014001865D: CC CC CC CC CC CC CC CC CC CC CC CC CC CC CC CC  ŒŒŒŒŒŒŒŒŒŒŒŒŒŒŒŒ
  000000014001866D: CC CC CC CC CC CC CC CC CC CC CC CC CC CC CC CC  ŒŒŒŒŒŒŒŒŒŒŒŒŒŒŒŒ
  000000014001867D: CC CC CC CC CC CC CC CC CC CC CC CC CC CC CC CC  ŒŒŒŒŒŒŒŒŒŒŒŒŒŒŒŒ
  000000014001868D: CC CC CC CC CC CC CC CC CC CC CC CC CC CC CC CC  ŒŒŒŒŒŒŒŒŒŒŒŒŒŒŒŒ
  000000014001869D: CC CC CC CC CC CC CC CC CC CC CC CC CC CC CC CC  ŒŒŒŒŒŒŒŒŒŒŒŒŒŒŒŒ
  00000001400186AD: CC CC CC CC CC CC CC CC CC CC CC CC CC CC CC CC  ŒŒŒŒŒŒŒŒŒŒŒŒŒŒŒŒ
  00000001400186BD: CC CC CC CC CC CC CC CC CC CC CC CC CC CC CC CC  ŒŒŒŒŒŒŒŒŒŒŒŒŒŒŒŒ
  00000001400186CD: CC CC CC CC CC CC CC CC CC CC CC CC CC CC CC CC  ŒŒŒŒŒŒŒŒŒŒŒŒŒŒŒŒ
  00000001400186DD: CC CC CC CC CC CC CC CC CC CC CC CC CC CC CC CC  ŒŒŒŒŒŒŒŒŒŒŒŒŒŒŒŒ
  00000001400186ED: CC CC CC CC CC CC CC CC CC CC CC CC CC CC CC CC  ŒŒŒŒŒŒŒŒŒŒŒŒŒŒŒŒ
  00000001400186FD: CC CC CC CC CC CC CC CC CC CC CC CC CC CC CC CC  ŒŒŒŒŒŒŒŒŒŒŒŒŒŒŒŒ
  000000014001870D: CC CC CC CC CC CC CC CC CC CC CC CC CC CC CC CC  ŒŒŒŒŒŒŒŒŒŒŒŒŒŒŒŒ
  000000014001871D: CC CC CC CC CC CC CC CC CC CC CC CC CC CC CC CC  ŒŒŒŒŒŒŒŒŒŒŒŒŒŒŒŒ
  000000014001872D: CC CC CC CC CC CC CC CC CC CC CC CC CC CC CC CC  ŒŒŒŒŒŒŒŒŒŒŒŒŒŒŒŒ
  000000014001873D: CC CC CC CC CC CC CC CC CC CC CC CC CC CC CC CC  ŒŒŒŒŒŒŒŒŒŒŒŒŒŒŒŒ
  000000014001874D: CC CC CC CC CC CC CC CC CC CC CC CC CC CC CC CC  ŒŒŒŒŒŒŒŒŒŒŒŒŒŒŒŒ
  000000014001875D: CC CC CC CC CC CC CC CC CC CC CC CC CC CC CC CC  ŒŒŒŒŒŒŒŒŒŒŒŒŒŒŒŒ
  000000014001876D: CC CC CC CC CC CC CC CC CC CC CC CC CC CC CC CC  ŒŒŒŒŒŒŒŒŒŒŒŒŒŒŒŒ
  000000014001877D: CC CC CC CC CC CC CC CC CC CC CC CC CC CC CC CC  ŒŒŒŒŒŒŒŒŒŒŒŒŒŒŒŒ
  000000014001878D: CC CC CC CC CC CC CC CC CC CC CC CC CC CC CC CC  ŒŒŒŒŒŒŒŒŒŒŒŒŒŒŒŒ
  000000014001879D: CC CC CC CC CC CC CC CC CC CC CC CC CC CC CC CC  ŒŒŒŒŒŒŒŒŒŒŒŒŒŒŒŒ
  00000001400187AD: CC CC CC CC CC CC CC CC CC CC CC CC CC CC CC CC  ŒŒŒŒŒŒŒŒŒŒŒŒŒŒŒŒ
  00000001400187BD: CC CC CC CC CC CC CC CC CC CC CC CC CC CC CC CC  ŒŒŒŒŒŒŒŒŒŒŒŒŒŒŒŒ
  00000001400187CD: CC CC CC CC CC CC CC CC CC CC CC CC CC CC CC CC  ŒŒŒŒŒŒŒŒŒŒŒŒŒŒŒŒ
  00000001400187DD: CC CC CC CC CC CC CC CC CC CC CC CC CC CC CC CC  ŒŒŒŒŒŒŒŒŒŒŒŒŒŒŒŒ
  00000001400187ED: CC CC CC CC CC CC CC CC CC CC CC CC CC CC CC CC  ŒŒŒŒŒŒŒŒŒŒŒŒŒŒŒŒ
  00000001400187FD: CC CC CC CC CC CC CC CC CC CC CC CC CC CC CC CC  ŒŒŒŒŒŒŒŒŒŒŒŒŒŒŒŒ
  000000014001880D: CC CC CC CC CC CC CC CC CC CC CC CC CC CC CC CC  ŒŒŒŒŒŒŒŒŒŒŒŒŒŒŒŒ
  000000014001881D: CC CC CC CC CC CC CC CC CC CC CC CC CC CC CC CC  ŒŒŒŒŒŒŒŒŒŒŒŒŒŒŒŒ
  000000014001882D: CC CC CC CC CC CC CC CC CC CC CC CC CC CC CC CC  ŒŒŒŒŒŒŒŒŒŒŒŒŒŒŒŒ
  000000014001883D: CC CC CC CC CC CC CC CC CC CC CC CC CC CC CC CC  ŒŒŒŒŒŒŒŒŒŒŒŒŒŒŒŒ
  000000014001884D: CC CC CC CC CC CC CC CC CC CC CC CC CC CC CC CC  ŒŒŒŒŒŒŒŒŒŒŒŒŒŒŒŒ
  000000014001885D: CC CC CC CC CC CC CC CC CC CC CC CC CC CC CC CC  ŒŒŒŒŒŒŒŒŒŒŒŒŒŒŒŒ
  000000014001886D: CC CC CC CC CC CC CC CC CC CC CC CC CC CC CC CC  ŒŒŒŒŒŒŒŒŒŒŒŒŒŒŒŒ
  000000014001887D: CC CC CC CC CC CC CC CC CC CC CC CC CC CC CC CC  ŒŒŒŒŒŒŒŒŒŒŒŒŒŒŒŒ
  000000014001888D: CC CC CC CC CC CC CC CC CC CC CC CC CC CC CC CC  ŒŒŒŒŒŒŒŒŒŒŒŒŒŒŒŒ
  000000014001889D: CC CC CC CC CC CC CC CC CC CC CC CC CC CC CC CC  ŒŒŒŒŒŒŒŒŒŒŒŒŒŒŒŒ
  00000001400188AD: CC CC CC CC CC CC CC CC CC CC CC CC CC CC CC CC  ŒŒŒŒŒŒŒŒŒŒŒŒŒŒŒŒ
  00000001400188BD: CC CC CC CC CC CC CC CC CC CC CC CC CC CC CC CC  ŒŒŒŒŒŒŒŒŒŒŒŒŒŒŒŒ
  00000001400188CD: CC CC CC CC CC CC CC CC CC CC CC CC CC CC CC CC  ŒŒŒŒŒŒŒŒŒŒŒŒŒŒŒŒ
  00000001400188DD: CC CC CC CC CC CC CC CC CC CC CC CC CC CC CC CC  ŒŒŒŒŒŒŒŒŒŒŒŒŒŒŒŒ
  00000001400188ED: CC CC CC CC CC CC CC CC CC CC CC CC CC CC CC CC  ŒŒŒŒŒŒŒŒŒŒŒŒŒŒŒŒ
  00000001400188FD: CC CC CC CC CC CC CC CC CC CC CC CC CC CC CC CC  ŒŒŒŒŒŒŒŒŒŒŒŒŒŒŒŒ
  000000014001890D: CC CC CC CC CC CC CC CC CC CC CC CC CC CC CC CC  ŒŒŒŒŒŒŒŒŒŒŒŒŒŒŒŒ
  000000014001891D: CC CC CC CC CC CC CC CC CC CC CC CC CC CC CC CC  ŒŒŒŒŒŒŒŒŒŒŒŒŒŒŒŒ
  000000014001892D: CC CC CC CC CC CC CC CC CC CC CC CC CC CC CC CC  ŒŒŒŒŒŒŒŒŒŒŒŒŒŒŒŒ
  000000014001893D: CC CC CC CC CC CC CC CC CC CC CC CC CC CC CC CC  ŒŒŒŒŒŒŒŒŒŒŒŒŒŒŒŒ
  000000014001894D: CC CC CC CC CC CC CC CC CC CC CC CC CC CC CC CC  ŒŒŒŒŒŒŒŒŒŒŒŒŒŒŒŒ
  000000014001895D: CC CC CC CC CC CC CC CC CC CC CC CC CC CC CC CC  ŒŒŒŒŒŒŒŒŒŒŒŒŒŒŒŒ
  000000014001896D: CC CC CC CC CC CC CC CC CC CC CC CC CC CC CC CC  ŒŒŒŒŒŒŒŒŒŒŒŒŒŒŒŒ
  000000014001897D: CC CC CC CC CC CC CC CC CC CC CC CC CC CC CC CC  ŒŒŒŒŒŒŒŒŒŒŒŒŒŒŒŒ
  000000014001898D: CC CC CC CC CC CC CC CC CC CC CC CC CC CC CC CC  ŒŒŒŒŒŒŒŒŒŒŒŒŒŒŒŒ
  000000014001899D: CC CC CC CC CC CC CC CC CC CC CC CC CC CC CC CC  ŒŒŒŒŒŒŒŒŒŒŒŒŒŒŒŒ
  00000001400189AD: CC CC CC CC CC CC CC CC CC CC CC CC CC CC CC CC  ŒŒŒŒŒŒŒŒŒŒŒŒŒŒŒŒ
  00000001400189BD: CC CC CC CC CC CC CC CC CC CC CC CC CC CC CC CC  ŒŒŒŒŒŒŒŒŒŒŒŒŒŒŒŒ
  00000001400189CD: CC CC CC CC CC CC CC CC CC CC CC CC CC CC CC CC  ŒŒŒŒŒŒŒŒŒŒŒŒŒŒŒŒ
  00000001400189DD: CC CC CC CC CC CC CC CC CC CC CC CC CC CC CC CC  ŒŒŒŒŒŒŒŒŒŒŒŒŒŒŒŒ
  00000001400189ED: CC CC CC CC CC CC CC CC CC CC CC CC CC CC CC CC  ŒŒŒŒŒŒŒŒŒŒŒŒŒŒŒŒ
  00000001400189FD: CC CC CC CC CC CC CC CC CC CC CC CC CC CC CC CC  ŒŒŒŒŒŒŒŒŒŒŒŒŒŒŒŒ
  0000000140018A0D: CC CC CC CC CC CC CC CC CC CC CC CC CC CC CC CC  ŒŒŒŒŒŒŒŒŒŒŒŒŒŒŒŒ
  0000000140018A1D: CC CC CC CC CC CC CC CC CC CC CC CC CC CC CC CC  ŒŒŒŒŒŒŒŒŒŒŒŒŒŒŒŒ
  0000000140018A2D: CC CC CC CC CC CC CC CC CC CC CC CC CC CC CC CC  ŒŒŒŒŒŒŒŒŒŒŒŒŒŒŒŒ
  0000000140018A3D: CC CC CC CC CC CC CC CC CC CC CC CC CC CC CC CC  ŒŒŒŒŒŒŒŒŒŒŒŒŒŒŒŒ
  0000000140018A4D: CC CC CC CC CC CC CC CC CC CC CC CC CC CC CC CC  ŒŒŒŒŒŒŒŒŒŒŒŒŒŒŒŒ
  0000000140018A5D: CC CC CC CC CC CC CC CC CC CC CC CC CC CC CC CC  ŒŒŒŒŒŒŒŒŒŒŒŒŒŒŒŒ
  0000000140018A6D: CC CC CC CC CC CC CC CC CC CC CC CC CC CC CC CC  ŒŒŒŒŒŒŒŒŒŒŒŒŒŒŒŒ
  0000000140018A7D: CC CC CC CC CC CC CC CC CC CC CC CC CC CC CC CC  ŒŒŒŒŒŒŒŒŒŒŒŒŒŒŒŒ
  0000000140018A8D: CC CC CC CC CC CC CC CC CC CC CC CC CC CC CC CC  ŒŒŒŒŒŒŒŒŒŒŒŒŒŒŒŒ
  0000000140018A9D: CC CC CC CC CC CC CC CC CC CC CC CC CC CC CC CC  ŒŒŒŒŒŒŒŒŒŒŒŒŒŒŒŒ
  0000000140018AAD: CC CC CC CC CC CC CC CC CC CC CC CC CC CC CC CC  ŒŒŒŒŒŒŒŒŒŒŒŒŒŒŒŒ
  0000000140018ABD: CC CC CC CC CC CC CC CC CC CC CC CC CC CC CC CC  ŒŒŒŒŒŒŒŒŒŒŒŒŒŒŒŒ
  0000000140018ACD: CC CC CC CC CC CC CC CC CC CC CC CC CC CC CC CC  ŒŒŒŒŒŒŒŒŒŒŒŒŒŒŒŒ
  0000000140018ADD: CC CC CC CC CC CC CC CC CC CC CC CC CC CC CC CC  ŒŒŒŒŒŒŒŒŒŒŒŒŒŒŒŒ
  0000000140018AED: CC CC CC CC CC CC CC CC CC CC CC CC CC CC CC CC  ŒŒŒŒŒŒŒŒŒŒŒŒŒŒŒŒ
  0000000140018AFD: CC CC CC CC CC CC CC CC CC CC CC CC CC CC CC CC  ŒŒŒŒŒŒŒŒŒŒŒŒŒŒŒŒ
  0000000140018B0D: CC CC CC CC CC CC CC CC CC CC CC CC CC CC CC CC  ŒŒŒŒŒŒŒŒŒŒŒŒŒŒŒŒ
  0000000140018B1D: CC CC CC CC CC CC CC CC CC CC CC CC CC CC CC CC  ŒŒŒŒŒŒŒŒŒŒŒŒŒŒŒŒ
  0000000140018B2D: CC CC CC CC CC CC CC CC CC CC CC CC CC CC CC CC  ŒŒŒŒŒŒŒŒŒŒŒŒŒŒŒŒ
  0000000140018B3D: CC CC CC CC CC CC CC CC CC CC CC CC CC CC CC CC  ŒŒŒŒŒŒŒŒŒŒŒŒŒŒŒŒ
  0000000140018B4D: CC CC CC CC CC CC CC CC CC CC CC CC CC CC CC CC  ŒŒŒŒŒŒŒŒŒŒŒŒŒŒŒŒ
  0000000140018B5D: CC CC CC CC CC CC CC CC CC CC CC CC CC CC CC CC  ŒŒŒŒŒŒŒŒŒŒŒŒŒŒŒŒ
  0000000140018B6D: CC CC CC CC CC CC CC CC CC CC CC CC CC CC CC CC  ŒŒŒŒŒŒŒŒŒŒŒŒŒŒŒŒ
  0000000140018B7D: CC CC CC CC CC CC CC CC CC CC CC CC CC CC CC CC  ŒŒŒŒŒŒŒŒŒŒŒŒŒŒŒŒ
  0000000140018B8D: CC CC CC CC CC CC CC CC CC CC CC CC CC CC CC CC  ŒŒŒŒŒŒŒŒŒŒŒŒŒŒŒŒ
  0000000140018B9D: CC CC CC CC CC CC CC CC CC CC CC CC CC CC CC CC  ŒŒŒŒŒŒŒŒŒŒŒŒŒŒŒŒ
  0000000140018BAD: CC CC CC CC CC CC CC CC CC CC CC CC CC CC CC CC  ŒŒŒŒŒŒŒŒŒŒŒŒŒŒŒŒ
  0000000140018BBD: CC CC CC CC CC CC CC CC CC CC CC CC CC CC CC CC  ŒŒŒŒŒŒŒŒŒŒŒŒŒŒŒŒ
  0000000140018BCD: CC CC CC CC CC CC CC CC CC CC CC CC CC CC CC CC  ŒŒŒŒŒŒŒŒŒŒŒŒŒŒŒŒ
  0000000140018BDD: CC CC CC CC CC CC CC CC CC CC CC CC CC CC CC CC  ŒŒŒŒŒŒŒŒŒŒŒŒŒŒŒŒ
  0000000140018BED: CC CC CC CC CC CC CC CC CC CC CC CC CC CC CC CC  ŒŒŒŒŒŒŒŒŒŒŒŒŒŒŒŒ
  0000000140018BFD: CC CC CC CC CC CC CC CC CC CC CC CC CC CC CC CC  ŒŒŒŒŒŒŒŒŒŒŒŒŒŒŒŒ
  0000000140018C0D: CC CC CC CC CC CC CC CC CC CC CC CC CC CC CC CC  ŒŒŒŒŒŒŒŒŒŒŒŒŒŒŒŒ
  0000000140018C1D: CC CC CC CC CC CC CC CC CC CC CC CC CC CC CC CC  ŒŒŒŒŒŒŒŒŒŒŒŒŒŒŒŒ
  0000000140018C2D: CC CC CC CC CC CC CC CC CC CC CC CC CC CC CC CC  ŒŒŒŒŒŒŒŒŒŒŒŒŒŒŒŒ
  0000000140018C3D: CC CC CC CC CC CC CC CC CC CC CC CC CC CC CC CC  ŒŒŒŒŒŒŒŒŒŒŒŒŒŒŒŒ
  0000000140018C4D: CC CC CC CC CC CC CC CC CC CC CC CC CC CC CC CC  ŒŒŒŒŒŒŒŒŒŒŒŒŒŒŒŒ
  0000000140018C5D: CC CC CC CC CC CC CC CC CC CC CC CC CC CC CC CC  ŒŒŒŒŒŒŒŒŒŒŒŒŒŒŒŒ
  0000000140018C6D: CC CC CC CC CC CC CC CC CC CC CC CC CC CC CC CC  ŒŒŒŒŒŒŒŒŒŒŒŒŒŒŒŒ
  0000000140018C7D: CC CC CC CC CC CC CC CC CC CC CC CC CC CC CC CC  ŒŒŒŒŒŒŒŒŒŒŒŒŒŒŒŒ
  0000000140018C8D: CC CC CC CC CC CC CC CC CC CC CC CC CC CC CC CC  ŒŒŒŒŒŒŒŒŒŒŒŒŒŒŒŒ
  0000000140018C9D: CC CC CC CC CC CC CC CC CC CC CC CC CC CC CC CC  ŒŒŒŒŒŒŒŒŒŒŒŒŒŒŒŒ
  0000000140018CAD: CC CC CC CC CC CC CC CC CC CC CC CC CC CC CC CC  ŒŒŒŒŒŒŒŒŒŒŒŒŒŒŒŒ
  0000000140018CBD: CC CC CC CC CC CC CC CC CC CC CC CC CC CC CC CC  ŒŒŒŒŒŒŒŒŒŒŒŒŒŒŒŒ
  0000000140018CCD: CC CC CC CC CC CC CC CC CC CC CC CC CC CC CC CC  ŒŒŒŒŒŒŒŒŒŒŒŒŒŒŒŒ
  0000000140018CDD: CC CC CC CC CC CC CC CC CC CC CC CC CC CC CC CC  ŒŒŒŒŒŒŒŒŒŒŒŒŒŒŒŒ
  0000000140018CED: CC CC CC CC CC CC CC CC CC CC CC CC CC CC CC CC  ŒŒŒŒŒŒŒŒŒŒŒŒŒŒŒŒ
  0000000140018CFD: CC CC CC CC CC CC CC CC CC CC CC CC CC CC CC CC  ŒŒŒŒŒŒŒŒŒŒŒŒŒŒŒŒ
  0000000140018D0D: CC CC CC CC CC CC CC CC CC CC CC CC CC CC CC CC  ŒŒŒŒŒŒŒŒŒŒŒŒŒŒŒŒ
  0000000140018D1D: CC CC CC CC CC CC CC CC CC CC CC CC CC CC CC CC  ŒŒŒŒŒŒŒŒŒŒŒŒŒŒŒŒ
  0000000140018D2D: CC CC CC CC CC CC CC CC CC CC CC CC CC CC CC CC  ŒŒŒŒŒŒŒŒŒŒŒŒŒŒŒŒ
  0000000140018D3D: CC CC CC CC CC CC CC CC CC CC CC CC CC CC CC CC  ŒŒŒŒŒŒŒŒŒŒŒŒŒŒŒŒ
  0000000140018D4D: CC CC CC CC CC CC CC CC CC CC CC CC CC CC CC CC  ŒŒŒŒŒŒŒŒŒŒŒŒŒŒŒŒ
  0000000140018D5D: CC CC CC CC CC CC CC CC CC CC CC CC CC CC CC CC  ŒŒŒŒŒŒŒŒŒŒŒŒŒŒŒŒ
  0000000140018D6D: CC CC CC CC CC CC CC CC CC CC CC CC CC CC CC CC  ŒŒŒŒŒŒŒŒŒŒŒŒŒŒŒŒ
  0000000140018D7D: CC CC CC CC CC CC CC CC CC CC CC CC CC CC CC CC  ŒŒŒŒŒŒŒŒŒŒŒŒŒŒŒŒ
  0000000140018D8D: CC CC CC CC CC CC CC CC CC CC CC CC CC CC CC CC  ŒŒŒŒŒŒŒŒŒŒŒŒŒŒŒŒ
  0000000140018D9D: CC CC CC CC CC CC CC CC CC CC CC CC CC CC CC CC  ŒŒŒŒŒŒŒŒŒŒŒŒŒŒŒŒ
  0000000140018DAD: CC CC CC CC CC CC CC CC CC CC CC CC CC CC CC CC  ŒŒŒŒŒŒŒŒŒŒŒŒŒŒŒŒ
  0000000140018DBD: CC CC CC CC CC CC CC CC CC CC CC CC CC CC CC CC  ŒŒŒŒŒŒŒŒŒŒŒŒŒŒŒŒ
  0000000140018DCD: CC CC CC CC CC CC CC CC CC CC CC CC CC CC CC CC  ŒŒŒŒŒŒŒŒŒŒŒŒŒŒŒŒ
  0000000140018DDD: CC CC CC CC CC CC CC CC CC CC CC CC CC CC CC CC  ŒŒŒŒŒŒŒŒŒŒŒŒŒŒŒŒ
  0000000140018DED: CC CC CC CC CC CC CC CC CC CC CC CC CC CC CC CC  ŒŒŒŒŒŒŒŒŒŒŒŒŒŒŒŒ
  0000000140018DFD: CC CC CC CC CC CC CC CC CC CC CC CC CC CC CC CC  ŒŒŒŒŒŒŒŒŒŒŒŒŒŒŒŒ
  0000000140018E0D: CC CC CC CC CC CC CC CC CC CC CC CC CC CC CC CC  ŒŒŒŒŒŒŒŒŒŒŒŒŒŒŒŒ
  0000000140018E1D: CC CC CC CC CC CC CC CC CC CC CC CC CC CC CC CC  ŒŒŒŒŒŒŒŒŒŒŒŒŒŒŒŒ
  0000000140018E2D: CC CC CC CC CC CC CC CC CC CC CC CC CC CC CC CC  ŒŒŒŒŒŒŒŒŒŒŒŒŒŒŒŒ
  0000000140018E3D: CC CC CC CC CC CC CC CC CC CC CC CC CC CC CC CC  ŒŒŒŒŒŒŒŒŒŒŒŒŒŒŒŒ
  0000000140018E4D: CC CC CC CC CC CC CC CC CC CC CC CC CC CC CC CC  ŒŒŒŒŒŒŒŒŒŒŒŒŒŒŒŒ
  0000000140018E5D: CC CC CC CC CC CC CC CC CC CC CC CC CC CC CC CC  ŒŒŒŒŒŒŒŒŒŒŒŒŒŒŒŒ
  0000000140018E6D: CC CC CC CC CC CC CC CC CC CC CC CC CC CC CC CC  ŒŒŒŒŒŒŒŒŒŒŒŒŒŒŒŒ
  0000000140018E7D: CC CC CC CC CC CC CC CC CC CC CC CC CC CC CC CC  ŒŒŒŒŒŒŒŒŒŒŒŒŒŒŒŒ
  0000000140018E8D: CC CC CC CC CC CC CC CC CC CC CC CC CC CC CC CC  ŒŒŒŒŒŒŒŒŒŒŒŒŒŒŒŒ
  0000000140018E9D: CC CC CC CC CC CC CC CC CC CC CC CC CC CC CC CC  ŒŒŒŒŒŒŒŒŒŒŒŒŒŒŒŒ
  0000000140018EAD: CC CC CC CC CC CC CC CC CC CC CC CC CC CC CC CC  ŒŒŒŒŒŒŒŒŒŒŒŒŒŒŒŒ
  0000000140018EBD: CC CC CC CC CC CC CC CC CC CC CC CC CC CC CC CC  ŒŒŒŒŒŒŒŒŒŒŒŒŒŒŒŒ
  0000000140018ECD: CC CC CC CC CC CC CC CC CC CC CC CC CC CC CC CC  ŒŒŒŒŒŒŒŒŒŒŒŒŒŒŒŒ
  0000000140018EDD: CC CC CC CC CC CC CC CC CC CC CC CC CC CC CC CC  ŒŒŒŒŒŒŒŒŒŒŒŒŒŒŒŒ
  0000000140018EED: CC CC CC CC CC CC CC CC CC CC CC CC CC CC CC CC  ŒŒŒŒŒŒŒŒŒŒŒŒŒŒŒŒ
  0000000140018EFD: CC CC CC CC CC CC CC CC CC CC CC CC CC CC CC CC  ŒŒŒŒŒŒŒŒŒŒŒŒŒŒŒŒ
  0000000140018F0D: CC CC CC CC CC CC CC CC CC CC CC CC CC CC CC CC  ŒŒŒŒŒŒŒŒŒŒŒŒŒŒŒŒ
  0000000140018F1D: CC CC CC CC CC CC CC CC CC CC CC CC CC CC CC CC  ŒŒŒŒŒŒŒŒŒŒŒŒŒŒŒŒ
  0000000140018F2D: CC CC CC CC CC CC CC CC CC CC CC CC CC CC CC CC  ŒŒŒŒŒŒŒŒŒŒŒŒŒŒŒŒ
  0000000140018F3D: CC CC CC CC CC CC CC CC CC CC CC CC CC CC CC CC  ŒŒŒŒŒŒŒŒŒŒŒŒŒŒŒŒ
  0000000140018F4D: CC CC CC CC CC CC CC CC CC CC CC CC CC CC CC CC  ŒŒŒŒŒŒŒŒŒŒŒŒŒŒŒŒ
  0000000140018F5D: CC CC CC CC CC CC CC CC CC CC CC CC CC CC CC CC  ŒŒŒŒŒŒŒŒŒŒŒŒŒŒŒŒ
  0000000140018F6D: CC CC CC CC CC CC CC CC CC CC CC CC CC CC CC CC  ŒŒŒŒŒŒŒŒŒŒŒŒŒŒŒŒ
  0000000140018F7D: CC CC CC CC CC CC CC CC CC CC CC CC CC CC CC CC  ŒŒŒŒŒŒŒŒŒŒŒŒŒŒŒŒ
  0000000140018F8D: CC CC CC CC CC CC CC CC CC CC CC CC CC CC CC CC  ŒŒŒŒŒŒŒŒŒŒŒŒŒŒŒŒ
  0000000140018F9D: CC CC CC CC CC CC CC CC CC CC CC CC CC CC CC CC  ŒŒŒŒŒŒŒŒŒŒŒŒŒŒŒŒ
  0000000140018FAD: CC CC CC CC CC CC CC CC CC CC CC CC CC CC CC CC  ŒŒŒŒŒŒŒŒŒŒŒŒŒŒŒŒ
  0000000140018FBD: CC CC CC CC CC CC CC CC CC CC CC CC CC CC CC CC  ŒŒŒŒŒŒŒŒŒŒŒŒŒŒŒŒ
  0000000140018FCD: CC CC CC CC CC CC CC CC CC CC CC CC CC CC CC CC  ŒŒŒŒŒŒŒŒŒŒŒŒŒŒŒŒ
  0000000140018FDD: CC CC CC CC CC CC CC CC CC CC CC CC CC CC CC CC  ŒŒŒŒŒŒŒŒŒŒŒŒŒŒŒŒ
  0000000140018FED: CC CC CC CC CC CC CC CC CC CC CC CC CC CC CC CC  ŒŒŒŒŒŒŒŒŒŒŒŒŒŒŒŒ
  0000000140018FFD: CC CC CC CC CC CC CC CC CC CC CC CC CC CC CC CC  ŒŒŒŒŒŒŒŒŒŒŒŒŒŒŒŒ
  000000014001900D: CC CC CC CC CC CC CC CC CC CC CC CC CC CC CC CC  ŒŒŒŒŒŒŒŒŒŒŒŒŒŒŒŒ
  000000014001901D: CC CC CC CC CC CC CC CC CC CC CC CC CC CC CC CC  ŒŒŒŒŒŒŒŒŒŒŒŒŒŒŒŒ
  000000014001902D: CC CC CC CC CC CC CC CC CC CC CC CC CC CC CC CC  ŒŒŒŒŒŒŒŒŒŒŒŒŒŒŒŒ
  000000014001903D: CC CC CC CC CC CC CC CC CC CC CC CC CC CC CC CC  ŒŒŒŒŒŒŒŒŒŒŒŒŒŒŒŒ
  000000014001904D: CC CC CC CC CC CC CC CC CC CC CC CC CC CC CC CC  ŒŒŒŒŒŒŒŒŒŒŒŒŒŒŒŒ
  000000014001905D: CC CC CC CC CC CC CC CC CC CC CC CC CC CC CC CC  ŒŒŒŒŒŒŒŒŒŒŒŒŒŒŒŒ
  000000014001906D: CC CC CC CC CC CC CC CC CC CC CC CC CC CC CC CC  ŒŒŒŒŒŒŒŒŒŒŒŒŒŒŒŒ
  000000014001907D: CC CC CC CC CC CC CC CC CC CC CC CC CC CC CC CC  ŒŒŒŒŒŒŒŒŒŒŒŒŒŒŒŒ
  000000014001908D: CC CC CC CC CC CC CC CC CC CC CC CC CC CC CC CC  ŒŒŒŒŒŒŒŒŒŒŒŒŒŒŒŒ
  000000014001909D: CC CC CC CC CC CC CC CC CC CC CC CC CC CC CC CC  ŒŒŒŒŒŒŒŒŒŒŒŒŒŒŒŒ
  00000001400190AD: CC CC CC CC CC CC CC CC CC CC CC CC CC CC CC CC  ŒŒŒŒŒŒŒŒŒŒŒŒŒŒŒŒ
  00000001400190BD: CC CC CC CC CC CC CC CC CC CC CC CC CC CC CC CC  ŒŒŒŒŒŒŒŒŒŒŒŒŒŒŒŒ
  00000001400190CD: CC CC CC CC CC CC CC CC CC CC CC CC CC CC CC CC  ŒŒŒŒŒŒŒŒŒŒŒŒŒŒŒŒ
  00000001400190DD: CC CC CC CC CC CC CC CC CC CC CC CC CC CC CC CC  ŒŒŒŒŒŒŒŒŒŒŒŒŒŒŒŒ
  00000001400190ED: CC CC CC CC CC CC CC CC CC CC CC CC CC CC CC CC  ŒŒŒŒŒŒŒŒŒŒŒŒŒŒŒŒ
  00000001400190FD: CC CC CC CC CC CC CC CC CC CC CC CC CC CC CC CC  ŒŒŒŒŒŒŒŒŒŒŒŒŒŒŒŒ
  000000014001910D: CC CC CC CC CC CC CC CC CC CC CC CC CC CC CC CC  ŒŒŒŒŒŒŒŒŒŒŒŒŒŒŒŒ
  000000014001911D: CC CC CC CC CC CC CC CC CC CC CC CC CC CC CC CC  ŒŒŒŒŒŒŒŒŒŒŒŒŒŒŒŒ
  000000014001912D: CC CC CC CC CC CC CC CC CC CC CC CC CC CC CC CC  ŒŒŒŒŒŒŒŒŒŒŒŒŒŒŒŒ
  000000014001913D: CC CC CC CC CC CC CC CC CC CC CC CC CC CC CC CC  ŒŒŒŒŒŒŒŒŒŒŒŒŒŒŒŒ
  000000014001914D: CC CC CC CC CC CC CC CC CC CC CC CC CC CC CC CC  ŒŒŒŒŒŒŒŒŒŒŒŒŒŒŒŒ
  000000014001915D: CC CC CC CC CC CC CC CC CC CC CC CC CC CC CC CC  ŒŒŒŒŒŒŒŒŒŒŒŒŒŒŒŒ
  000000014001916D: CC CC CC CC CC CC CC CC CC CC CC CC CC CC CC CC  ŒŒŒŒŒŒŒŒŒŒŒŒŒŒŒŒ
  000000014001917D: CC CC CC CC CC CC CC CC CC CC CC CC CC CC CC CC  ŒŒŒŒŒŒŒŒŒŒŒŒŒŒŒŒ
  000000014001918D: CC CC CC CC CC CC CC CC CC CC CC CC CC CC CC CC  ŒŒŒŒŒŒŒŒŒŒŒŒŒŒŒŒ
  000000014001919D: CC CC CC CC CC CC CC CC CC CC CC CC CC CC CC CC  ŒŒŒŒŒŒŒŒŒŒŒŒŒŒŒŒ
  00000001400191AD: CC CC CC CC CC CC CC CC CC CC CC CC CC CC CC CC  ŒŒŒŒŒŒŒŒŒŒŒŒŒŒŒŒ
  00000001400191BD: CC CC CC CC CC CC CC CC CC CC CC CC CC CC CC CC  ŒŒŒŒŒŒŒŒŒŒŒŒŒŒŒŒ
  00000001400191CD: CC CC CC CC CC CC CC CC CC CC CC CC CC CC CC CC  ŒŒŒŒŒŒŒŒŒŒŒŒŒŒŒŒ
  00000001400191DD: CC CC CC CC CC CC CC CC CC CC CC CC CC CC CC CC  ŒŒŒŒŒŒŒŒŒŒŒŒŒŒŒŒ
  00000001400191ED: CC CC CC CC CC CC CC CC CC CC CC CC CC CC CC CC  ŒŒŒŒŒŒŒŒŒŒŒŒŒŒŒŒ
  00000001400191FD: CC CC CC CC CC CC CC CC CC CC CC CC CC CC CC CC  ŒŒŒŒŒŒŒŒŒŒŒŒŒŒŒŒ
  000000014001920D: CC CC CC CC CC CC CC CC CC CC CC CC CC CC CC CC  ŒŒŒŒŒŒŒŒŒŒŒŒŒŒŒŒ
  000000014001921D: CC CC CC CC CC CC CC CC CC CC CC CC CC CC CC CC  ŒŒŒŒŒŒŒŒŒŒŒŒŒŒŒŒ
  000000014001922D: CC CC CC CC CC CC CC CC CC CC CC CC CC CC CC CC  ŒŒŒŒŒŒŒŒŒŒŒŒŒŒŒŒ
  000000014001923D: CC CC CC CC CC CC CC CC CC CC CC CC CC CC CC CC  ŒŒŒŒŒŒŒŒŒŒŒŒŒŒŒŒ
  000000014001924D: CC CC CC CC CC CC CC CC CC CC CC CC CC CC CC CC  ŒŒŒŒŒŒŒŒŒŒŒŒŒŒŒŒ
  000000014001925D: CC CC CC CC CC CC CC CC CC CC CC CC CC CC CC CC  ŒŒŒŒŒŒŒŒŒŒŒŒŒŒŒŒ
  000000014001926D: CC CC CC CC CC CC CC CC CC CC CC CC CC CC CC CC  ŒŒŒŒŒŒŒŒŒŒŒŒŒŒŒŒ
  000000014001927D: CC CC CC CC CC CC CC CC CC CC CC CC CC CC CC CC  ŒŒŒŒŒŒŒŒŒŒŒŒŒŒŒŒ
  000000014001928D: CC CC CC CC CC CC CC CC CC CC CC CC CC CC CC CC  ŒŒŒŒŒŒŒŒŒŒŒŒŒŒŒŒ
  000000014001929D: CC CC CC CC CC CC CC CC CC CC CC CC CC CC CC CC  ŒŒŒŒŒŒŒŒŒŒŒŒŒŒŒŒ
  00000001400192AD: CC CC CC CC CC CC CC CC CC CC CC CC CC CC CC CC  ŒŒŒŒŒŒŒŒŒŒŒŒŒŒŒŒ
  00000001400192BD: CC CC CC CC CC CC CC CC CC CC CC CC CC CC CC CC  ŒŒŒŒŒŒŒŒŒŒŒŒŒŒŒŒ
  00000001400192CD: CC CC CC CC CC CC CC CC CC CC CC CC CC CC CC CC  ŒŒŒŒŒŒŒŒŒŒŒŒŒŒŒŒ
  00000001400192DD: CC CC CC CC CC CC CC CC CC CC CC CC CC CC CC CC  ŒŒŒŒŒŒŒŒŒŒŒŒŒŒŒŒ
  00000001400192ED: CC CC CC CC CC CC CC CC CC CC CC CC CC CC CC CC  ŒŒŒŒŒŒŒŒŒŒŒŒŒŒŒŒ
  00000001400192FD: CC CC CC CC CC CC CC CC CC CC CC CC CC CC CC CC  ŒŒŒŒŒŒŒŒŒŒŒŒŒŒŒŒ
  000000014001930D: CC CC CC CC CC CC CC CC CC CC CC CC CC CC CC CC  ŒŒŒŒŒŒŒŒŒŒŒŒŒŒŒŒ
  000000014001931D: CC CC CC CC CC CC CC CC CC CC CC CC CC CC CC CC  ŒŒŒŒŒŒŒŒŒŒŒŒŒŒŒŒ
  000000014001932D: CC CC CC CC CC CC CC CC CC CC CC CC CC CC CC CC  ŒŒŒŒŒŒŒŒŒŒŒŒŒŒŒŒ
  000000014001933D: CC CC CC CC CC CC CC CC CC CC CC CC CC CC CC CC  ŒŒŒŒŒŒŒŒŒŒŒŒŒŒŒŒ
  000000014001934D: CC CC CC CC CC CC CC CC CC CC CC CC CC CC CC CC  ŒŒŒŒŒŒŒŒŒŒŒŒŒŒŒŒ
  000000014001935D: CC CC CC CC CC CC CC CC CC CC CC CC CC CC CC CC  ŒŒŒŒŒŒŒŒŒŒŒŒŒŒŒŒ
  000000014001936D: CC CC CC CC CC CC CC CC CC CC CC CC CC CC CC CC  ŒŒŒŒŒŒŒŒŒŒŒŒŒŒŒŒ
  000000014001937D: CC CC CC CC CC CC CC CC CC CC CC CC CC CC CC CC  ŒŒŒŒŒŒŒŒŒŒŒŒŒŒŒŒ
  000000014001938D: CC CC CC CC CC CC CC CC CC CC CC CC CC CC CC CC  ŒŒŒŒŒŒŒŒŒŒŒŒŒŒŒŒ
  000000014001939D: CC CC CC CC CC CC CC CC CC CC CC CC CC CC CC CC  ŒŒŒŒŒŒŒŒŒŒŒŒŒŒŒŒ
  00000001400193AD: CC CC CC CC CC CC CC CC CC CC CC CC CC CC CC CC  ŒŒŒŒŒŒŒŒŒŒŒŒŒŒŒŒ
  00000001400193BD: CC CC CC CC CC CC CC CC CC CC CC CC CC CC CC CC  ŒŒŒŒŒŒŒŒŒŒŒŒŒŒŒŒ
  00000001400193CD: CC CC CC CC CC CC CC CC CC CC CC CC CC CC CC CC  ŒŒŒŒŒŒŒŒŒŒŒŒŒŒŒŒ
  00000001400193DD: CC CC CC CC CC CC CC CC CC CC CC CC CC CC CC CC  ŒŒŒŒŒŒŒŒŒŒŒŒŒŒŒŒ
  00000001400193ED: CC CC CC CC CC CC CC CC CC CC CC CC CC CC CC CC  ŒŒŒŒŒŒŒŒŒŒŒŒŒŒŒŒ
  00000001400193FD: CC CC CC CC CC CC CC CC CC CC CC CC CC CC CC CC  ŒŒŒŒŒŒŒŒŒŒŒŒŒŒŒŒ
  000000014001940D: CC CC CC CC CC CC CC CC CC CC CC CC CC CC CC CC  ŒŒŒŒŒŒŒŒŒŒŒŒŒŒŒŒ
  000000014001941D: CC CC CC CC CC CC CC CC CC CC CC CC CC CC CC CC  ŒŒŒŒŒŒŒŒŒŒŒŒŒŒŒŒ
  000000014001942D: CC CC 00 00 00 00 00 00 00 00 00 00 00 00 00 00  ŒŒ..............

  Summary

        1000 .00cfg
        1000 .data
        1000 .idata
        1000 .msvcjmc
        3000 .pdata
        3000 .rdata
        1000 .reloc
        1000 .rsrc
        9000 .text
       10000 .textbss
